Z80ASM SuperFast Relocating Macro Assembler     	    Z80ASM 1.32 Page   1
M72A-DD Z80

    1                   ;---------------------------------------------------------------
    2                   ;Monitor fuer MC-Computer Platine SYS-1
    3                   ;Assembliert mit Z80ASM von SLR Systems wegen der langen
    4                   ;Label die mit einigen anderen Assemblern nicht moeglich sind.
    5                   ;
    6                   ;Erstellt 04/2026 von U. Haumann
    7                   ;Enthaelt Floppy Routinen aus RDK Monitor 1.1, sowie Teile aus 
    8                   ;dem Monitor von Donn Stewart fuer den "CPU-Ville" Z80 Computer.
    9                   ;Single Density boot wird uebersprungen, kann aber einfach
   10                   ;auskommentiet oder gelvscht werden wenn original gewuenscht.
   11                   ;Flo1 und Flo2 waehlber auf Hardware Basis Adresse 0C0h.
   12                   ;Der Mointor erwartet 64KB Ram Memory. Er darf selbst nicht
   13                   ;groesser als 4KB werden, es sein denn man schiebt die MON_ADR
   14                   ;und CCP weiter nach unten. Der CPM Bereich verkleinert sich dann.
   15                   ;Der Monitor kopiert sich nach Reset an das Speicherende
   16                   ;auf den Wert in MON_ADR und gibt den unteren RAM Bereich frei.
   17                   ;Dies wird auf der SYS1 mit einem Lesebefehl auf
   18                   ;Adresse 7000h erreicht. Das Eprom ist dann ausgeblendet.
   19                   ;Somit steht der Speicher durchgaengig ab 0000h bis zu MON_ADR
   20                   ;zur Verfuehgung.
   21                   ;Das CPM BIOS fuer den MC-Computer ueberschreibt den Monitorbereich
   22                   ;ab FC00h. Alle relevanten Teile f|r den Betrieb des Rechners 
   23                   ;muessen vor FC00h plaziert werden.
   24                   ;
   25                   ;---------------------------------------------------------------
   26                   			.Z80
   27                   
   28         0000      			ORG	0000h		;Beginn iM ROM AUF ADRESSE 0
   29                   ;
   30         F000      		Mon_ADR	EQU 0F000H	;Monitor Zieladresse
   31         D400      		CCP		EQU 0D400H	;CP/M CCP Anfang
   32                   ;
   33                   ;Routine um den ROM Inhalt nach "Mon_ADR" zu schieben
   34                   ;
   35 0000              BEGINN:
   36 0000  31 FFFF     	LD SP,0FFFFH 		;DUMMY-LOAD 
   37 0003  3E C9       	LD A,0C9H 			;ABLAGE RET-BEFEHL
   38 0005  32 F000     	LD (Mon_ADR),A 		;AUF ZIELADRESSE
   39 0008  CD F000     	CALL Mon_ADR 		;FESTSTELLEN
   40 000B              ANF:					;DER EIGENEN ADRESSE,
   41 000B  3B          	DEC SP  			;UM START VON BELIEBIGER
   42 000C  3B          	DEC SP  			;STELLE AUS ZU ERMOEGLICHEN
   43 000D  D1          	POP DE  			;FUER TESTS SEHR GUT
   44 000E  21 0012     	LD HL,HAUPTP-ANF
   45 0011  19          	ADD HL,DE
   46 0012  11 F000     	LD DE,Mon_ADR 		;TRANSPORT ALLER ZELLEN
   47 0015  01 0FFF     	LD BC,0FFFH 		;4K TRANSFER
   48 0018  ED B0       	LDIR  			
   49 001A  C3 F000     	JP Mon_ADR 		;und los gehts
   50 001D              HAUPTP:				;DISTANZ-MERKER
   51                   ;
   52                   		.PHASE Mon_ADR 	;Monitor auf Zieladresse einstellen
   53                   ;
   54                   ; --- START DES EIGENTLICHEN MONITORS ---
   55                   ;
   56         000D      	CR 		EQU 0DH
   57         000A      	LF 		EQU 0AH
   58         0007      	BELL		EQU 07H
Z80ASM SuperFast Relocating Macro Assembler     	    Z80ASM 1.32 Page   2
M72A-DD Z80

   59         00FF      	RUB 		EQU 0FFH
   60         001B      	ESC		EQU 1BH
   61                   ;
   62         0038      	RST7		EQU 38H	; ANFANG VERSCHIEBBAR
   63                   					; der Vektor RST7 wird fuer Breakpoints gebraucht
   64                   ;
   65                   ;Adressen des Seriell Port MC Computer SIO/PIO Karte
   66                   ;
   67         00F0      	SIOADAT	EQU 0F0H
   68         00F1      	SIOASTS	EQU 0F1H
   69         00F2      	SIOBDAT	EQU 0F2H
   70         00F3      	SIOBSTS	EQU 0F3H
   71         0001      	RXRDY		EQU 001h			;RX Ready Bit
   72         0004      	TXRDY		EQU 004h			;TX Ready Bit
   73                   ;
   74                   ;Adressen IDE Port CF-80 Karte
   75                   ;
   76         0018      	IDEDATA	EQU 018h			;IDE Daten Register
   77         001A      	SECCND	EQU 01ah			;Sector Count Register
   78         001B      	LBA7		EQU 01bh			;LBA Bits 0-7
   79         001C      	LBA15		EQU 01ch			;LBA Bits 8-15
   80         001D      	LBA23		EQU 01dh			;LBA Bits 16-23
   81         001E      	IDEHEAD	EQU 01eh			;IDE Drive Head Register
   82         001F      	IDESTAT	EQU 01fh			;IDE Command/Status Register
   83                   ;
   84                   ; Basisadresse Floppy-Controller FLO2
   85                   ;
   86         00C0      	flo 		equ 0c0h 		
   87         00C0      	flo0 		equ 0c0h   	
   88         00C1      	flo1 		equ 0c1h
   89         00C2      	flo2		equ 0c2h
   90         00C3      	flo3		equ 0c3h
   91         00C4      	flo4		equ 0c4h 			; Port fuer Zusatzstatus etc.
   92                   
   93                   ;
   94                   ;Die Unterprogramme der seriellen Ein/Ausgabe brauchen Speicher im RAM
   95                   ;
   96         D300      		Ser_ADR	equ	CCP-0100H		;Basis Adresse Seriell Puffer
   97                   								;liegt direkt unterhalb CCP
   98         D300      current_location	equ	Ser_ADR+00H	;word variable in RAM
   99         D302      line_count			equ	Ser_ADR+02H	;byte variable in RAM
  100         D303      byte_count			equ	Ser_ADR+03H	;byte variable in RAM
  101         D304      value_pointer		equ	Ser_ADR+04H	;word variable in RAM
  102         D306      current_value		equ	Ser_ADR+06H	;word variable in RAM
  103         D308      buffer			equ	Ser_ADR+08H	;buffer up to CCP
  104                   ;
  105                   ;* VEKTOR TABELLE *
  106                   ; CSTS 0FFH IN A, FALLS ZEICHEN DA
  107                   ; IOCHK IN A AKTUELLE IO-KONFIGURATION
  108                   ; IOSET VERAENDERN, IO IN C-REG
  109                   ; MEMCK IN B HIGH IN A LOW MEMORY
  110                   ; TRAP/BREAKPOINT ENTRY
  111                   ;
  112                   ; --- Sprungtabellen am ROM Start
  113                   ;feste Einsprungadressen fuer andere Programme
  114                   ;
  115 F000  C3 F042     	JP BEGIN			;Kaltstart Monitor
  116 F003  C3 F045     	JP CI				;Consol Input Routine
Z80ASM SuperFast Relocating Macro Assembler     	    Z80ASM 1.32 Page   3
M72A-DD Z80

  117 F006  C3 F06D     	JP RI
  118 F009  C3 F059     	JP CO				;Consol Output Routine
  119 F00C  C3 F083     	JP POO
  120 F00F  C3 F09A     	JP LO
  121 F012  C3 F0B1     	JP CSTS
  122 F015  C3 F0C4     	JP IOBYTE
  123 F018  C3 F0C8     	JP IOSET
  124 F01B  C3 F0CD     	JP MEMCK
  125 F01E              TRAP:	
  126 F01E  C3 F03F     	JP RESTA1			;Restart Vector
  127 F021  C3 F1D5     	JP FLOP  	 		;neue Floppy-Schnittstelle rev 1.0
  128 F024  C3 F16B     	JP MAXI  			;FLOPPY EXEC VEKTOR SOFT (alt)
  129 F027  C3 F1A6     	JP MINI  			;FLOPPY EXEC VEKTOR MINI (alt)	
  130 F02A  C3 F6B2     	JP IDE_read		;IDE Sektor lesen
  131 F02D  C3 F6F1     	JP IDE_write		;IDE Sektor schreiben
  132 F030  C3 F84A     	JP mon_cold_start	;Monitor Kalt Start, Hardware init
  133 F033  C3 F883     	JP mon_warm_start	;Monitor Warm Start
  134 F036  C3 F440     	JP write_string		;gibt mit 0 terminierten String aus
  135                   ;
  136 F039  F0FC        	DEFW TABSTART 		;TABELLEN-START, USER-BEREICH
  137                   					;SPRUNGTABELLE, IMMER
  138                   					;INDIREKT VERWENDEN
  139 F03B  FF45        	DEFW LASTMON 		;ADRESSE LETZTE BELEGTE ZELLE
  140                   					;DES MONITORS DANACH PATCH FREI
  141 F03D  F730        	DEFW FREEMEM 		;Lade-Adresse hinter IO-Gebiet
  142                   
  143 F03F              RESTA1:
  144 F03F  C3 FAC9     	JP RESTA 			;kann kurzgeschlossen werden
  145                   					;nach freemem Ueberschreibung
  146                   ;
  147 F042              BEGIN:
  148 F042  C3 F826     	JP BEGIN1 			;kurzschliessen ggf.
  149                   					;ende fixed gebiet
  150                   ;
  151                   ;**************************************
  152                   ;* IO Routinen
  153                   ;**************************************
  154                   ;
  155                   ; --- Consol Input ROUTINE ---
  156 F045              CI:
  157 F045  3A F10E     	LD A,(IOBYT)		;Abfrage des IO Byte
  158 F048  E6 03       	AND 3 			;CONSOLMASKE
  159 F04A  20 0A       	JR NZ,CI1 			;Wenn nicht Standart Console
  160                   ;
  161 F04C              TTYIN:
  162 F04C  DB F1       	in 	a,(SIOASTS)		;get status
  163 F04E  E6 01       	and 	RXRDY				;check RxRDY bit
  164 F050  CA F04C     	jp 	z,TTYIN			;not ready, loop
  165 F053  DB F0       	in 	a,(SIOADAT)		;get char
  166 F055  C9          	ret
  167                   ;
  168 F056              CI1:
  169 F056  C3 F0FC     	JP USERCI  		;Dort Sprung zur moeglicher Benutzer
  170                   					;Console
  171                   ;
  172                   ; --- Consol Output ROUTINE --- 
  173 F059              CO:
  174 F059  3A F10E     	LD A,(IOBYT)		;Abfrage des IO Byte
Z80ASM SuperFast Relocating Macro Assembler     	    Z80ASM 1.32 Page   4
M72A-DD Z80

  175 F05C  E6 03       	AND 3	
  176 F05E  20 0A       	JR NZ,CO1			;Wenn nicht Standard Console
  177                   ;					
  178 F060              TTYOUT:				;bei Aufruf mus auszugebendes Zeichen
  179                   					;in Register C sein
  180 F060  DB F1       	IN A,(SIOASTS)
  181 F062  E6 04       	and	TXRDY				;check TxRDY bit
  182 F064  28 FA       	JR Z,TTYOUT
  183 F066  79          	LD A,C			
  184 F067  D3 F0       	OUT (SIOADAT),A
  185 F069  C9          	RET
  186 F06A              CO1:
  187 F06A  C3 F102     	JP USERCO 			;DORT SPRUNG MOEGLICH
  188                   ;
  189                   ; --- RI ROUTINE ---
  190 F06D              RI:
  191 F06D  3A F10E     	LD A,(IOBYT)
  192 F070  E6 0C       	AND 00001100B
  193 F072  CA F045     	JP Z,CI  			;AR=T
  194 F075  FE 04       	CP 00000100B 
  195 F077  C2 F0FF     	JP NZ,USERRI
  196 F07A              LXLPI:				;AR=P
  197 F07A  DB F3       	IN A,(SIOBSTS)
  198 F07C  E6 01       	AND 1
  199 F07E  28 FA       	JR Z,LXLPI
  200 F080  DB F2       	IN A,(SIOBDAT)
  201 F082  C9          	RET
  202                   ;
  203 F083              POO:		; --- MAIN POO ROUTINE ---
  204                   		;HIER ABFRAGE IOBYT MOEGLICH
  205                   
  206 F083  3A F10E     	LD A,(IOBYT)
  207 F086  E6 30       	AND 00110000B
  208 F088  CA F059     	JP Z,CO  			;AP=T
  209 F08B  FE 10       	CP 00010000B
  210 F08D  C2 F105     	JP NZ,USERPOO
  211 F090              LXLPO:				;AP=P
  212 F090  DB F3       	IN A,(SIOBSTS)
  213 F092  E6 04       	AND 4
  214 F094  28 FA       	JR Z,LXLPO
  215 F096  79          	LD A,C
  216 F097  D3 F2       	OUT (SIOBDAT),A
  217 F099  C9          	RET
  218                   ;
  219 F09A              LO:
  220 F09A  3A F10E     	LD A,(IOBYT)
  221 F09D  E6 C0       	AND 0C0H
  222 F09F  CA F060     	JP Z,TTYOUT 		;AL=T
  223 F0A2  FE 80       	CP 10000000B 		
  224 F0A4  C2 F108     	JP NZ,USERLO
  225                   					;AL=L
  226 F0A7              LO1:
  227 F0A7  DB F3       	IN A,(SIOBSTS)
  228 F0A9  E6 04       	AND 4
  229 F0AB  28 FA       	JR Z,LO1
  230 F0AD  79          	LD A,C
  231 F0AE  D3 F2       	OUT (SIOBDAT),A
  232 F0B0  C9          	RET
Z80ASM SuperFast Relocating Macro Assembler     	    Z80ASM 1.32 Page   5
M72A-DD Z80

  233                   
  234 F0B1              CSTS:		
  235 F0B1  3A F10E     	LD A,(IOBYT)
  236 F0B4  E6 03       	AND 3
  237 F0B6  20 09       	JR NZ,CS0
  238 F0B8              TTYCSTS:
  239 F0B8  DB F1       	IN A,(SIOASTS)
  240 F0BA  E6 01       	AND 1
  241 F0BC  C8          	RET Z
  242 F0BD  3E FF       	LD A,0FFH
  243 F0BF  B7          	OR A
  244 F0C0  C9          	RET
  245                   		;
  246 F0C1              CS0:
  247 F0C1  C3 F10B     	JP USERCSTS 		;USER BEREICH
  248                   
  249                   ; Das IOBYTE dient der Umschaltung von
  250                   ; physikalischem nach logischem Geraet
  251                   ; Es hat die gleiche Bedeutung
  252                   ; wie im CP/M-Bios 
  253                   ;
  254 F0C4              IOBYTE:
  255 F0C4  3A F10E     	LD A,(IOBYT)
  256 F0C7  C9          	RET
  257                   ; IOSET
  258                   ; kann z.B. im Bios gesetzt werden
  259 F0C8              IOSET:
  260 F0C8  79          	LD A,C
  261 F0C9  32 F10E     	LD (IOBYT),A
  262 F0CC  C9          	RET
  263                   ;
  264 F0CD              MEMCK:	;prueft den Speicherbereich und gibt
  265                   		;die hoechste verfuegbare Zelle an
  266                   ;
  267 F0CD  E5          	PUSH HL
  268 F0CE  CD F0DA     	CALL MEMSIZ
  269 F0D1  7D          	LD A,L
  270 F0D2  D6 3C       	SUB 3CH
  271 F0D4  30 01       	JR NC,LXBZ
  272 F0D6  25          	DEC H
  273 F0D7              LXBZ:
  274 F0D7  44          	LD B,H
  275 F0D8  E1          	POP HL
  276 F0D9  C9          	RET
  277                   
  278 F0DA              MEMSIZ:	; --- Unterprogramm fuer Speicherendebestimmung ---
  279 F0DA  C5          	PUSH BC
  280 F0DB  21 FFFF     	LD HL,-1
  281 F0DE              LXM0:
  282 F0DE  24          	INC H
  283 F0DF  7E          	LD A,(HL)
  284 F0E0  2F          	CPL
  285 F0E1  77          	LD (HL),A
  286 F0E2  BE          	CP (HL)
  287 F0E3  2F          	CPL
  288 F0E4  77          	LD (HL),A
  289 F0E5  20 F7       	JR NZ,LXM0
  290 F0E7              LXM1:
Z80ASM SuperFast Relocating Macro Assembler     	    Z80ASM 1.32 Page   6
M72A-DD Z80

  291 F0E7  24          	INC H
  292 F0E8  7C          	LD A,H
  293 F0E9  FE F0       	CP 0F0H  		;ALL RAM
  294 F0EB  28 08       	JR Z,LXM2 		;READY 0F000H
  295 F0ED  7E          	LD A,(HL) 		;max 0f000h, da dort Monitor startet
  296 F0EE  2F          	CPL
  297 F0EF  77          	LD (HL),A
  298 F0F0  BE          	CP (HL)
  299 F0F1  2F          	CPL
  300 F0F2  77          	LD (HL),A
  301 F0F3  28 F2       	JR Z,LXM1
  302 F0F5              LXM2:
  303 F0F5  25          	DEC H
  304 F0F6  01 FFDD     	LD BC,EXIT-ENDX
  305 F0F9  09          	ADD HL,BC
  306 F0FA  C1          	POP BC
  307 F0FB  C9          	RET
  308                   ;
  309 F0FC              TABSTART:			;TABELLE SPRUNG-VEKTOREN
  310                   				;hier Sprung zu eigener Verarbeitung moeglich
  311                   				;erstmal alles auf Standard umgeleitet
  312 F0FC  C3 F04C     USERCI:	JP TTYIN	
  313 F0FF  C3 F04C     USERRI:	JP TTYIN
  314 F102  C3 F060     USERCO:	JP TTYOUT
  315 F105  C3 F060     USERPOO:	JP TTYOUT
  316 F108  C3 F060     USERLO:	JP TTYOUT
  317 F10B  C3 F0B8     USERCSTS:	JP TTYCSTS
  318                   		;
  319 F10E  00          IOBYT:	DEFB 0  	;IOBYTE-SPEICHER 
  320 F10F    0003      OEXEC:	DEFS 3
  321 F112    0003      IEXEC:	DEFS 3
  322 F115    0003      KEXEC:	DEFS 3
  323                   ;
  324                   ;
  325                   		;**************FLOPPY FLO2********************
  326                   
  327                   				; Autobestimmung des Formats
  328 F118              getfl:			; in C ist danach der gueltige
  329                   				; Laufwerkscode, Vorgabe ist
  330                   				; in C die Laufwerksnummer
  331                   				; und ggf. Seite.
  332                   				;
  333 F118  F3          	di  			; ohne Interrupts
  334                   				; testet mini,sd =11
  335                   				;        mini,dd =10
  336                   				;        maxi,sd =01
  337                   				;        maxi,dd =00
  338 F119  3E D0       	ld a,0d0h
  339 F11B  D3 C0       	out (flo0),a 		; Stop Controller
  340 F11D  DB C0       	in a,(flo0) 		; Ints loeschen
  341 F11F  79          	ld a,c
  342 F120  E6 8F       	and 8fh 			; nur Drivecode ok
  343 F122  4F          	ld c,a
  344 F123  CD F285     	call wawa
  345 F126  79          	ld a,c
  346 F127  F6 30       	or 00110000b		;mini sd vorgeben		
  347 F129  4F          	ld c,a
  348 F12A  CD F148     	call get1fl
Z80ASM SuperFast Relocating Macro Assembler     	    Z80ASM 1.32 Page   7
M72A-DD Z80

  349 F12D  D0          	ret nc  			; kein Fehler, no carry
  350 F12E  79          	ld a,c
  351 F12F  E6 AF       	and 10101111b
  352 F131  4F          	ld c,a
  353 F132  CD F148     	call get1fl
  354 F135  D0          	ret nc
  355 F136  79          	ld a,c
  356 F137  E6 8F       	and 10001111b
  357 F139  F6 10       	or  00010000b
  358 F13B  4F          	ld c,a
  359 F13C  CD F148     	call get1fl
  360 F13F  D0          	ret nc
  361 F140  79          	ld a,c
  362 F141  E6 8F       	and 10001111b
  363 F143  4F          	ld c,a
  364 F144  CD F148     	call get1fl
  365 F147  C9          	ret  				; carry, dann Fehler
  366                   
  367                   
  368 F148              get1fl:
  369 F148  3A F43B     	ld a,(floc0)
  370                   				;1 	if a=1  		;FLO1 
  371 F14B  FE 01       	CP 1  
  372 F14D  C2 F156     	JP NZ,.L1
  373 F150  79          	ld a,c
  374 F151  EE 10       	xor 10h 			;wenn Flo1 dann invertieren Dichtebit
  375                   				;1 	else  	;FLO2
  376 F153  C3 F157     	JP .L2
  377 F156              .L1:
  378 F156  79          	ld a,c
  379                   				;1 	endif    
  380 F157              .L2:
  381                   
  382 F157  D3 C4       	out (flo4),a 		; Drive-Code probieren
  383 F159  3E 0F       	ld a,0fh 			; RSTORE-Befehl mit Verify verwenden
  384 F15B  D3 C0       	out (flo0),a 		; und ausgeben
  385 F15D              get2fl:
  386 F15D  DB C4       	in a,(flo4)
  387 F15F  E6 40       	and 40h 			; Bit 6 pruefen
  388 F161  28 FA       	jr z,get2fl 		; bis INT da.
  389 F163  DB C0       	in a,(flo0) 		; und dann status lesen, int loeschen
  390 F165  E6 98       	and  10011000b 		; krit. Bit testen 
  391 F167  37          	scf  				; falls Fehler, dann setzen
  392 F168  C0          	ret nz  			; carry=Fehler
  393 F169  AF          	xor a
  394 F16A  C9          	ret  				; sonst ok nocarry (c=Code)
  395                   
  396                   
  397                   		;*************************************************
  398                   		;* Floppy Interface Paket Rev 1.0   841031       *
  399                   		;* (C) 1984 Muenchen, Rolf-Dieter Klein          *
  400                   		;*************************************************
  401                   
  402                   					; Routinen fuer MC-Kompatibilitaet
  403                   					; wie floppy, jedoch Drive-Codierung anders
  404                   					; nur fuer bestehende BIOS-Routinen gedacht
  405                   					; 
  406                   					; bei Maxi wird die Seite 1 mit Seitenpruefung auf 0
Z80ASM SuperFast Relocating Macro Assembler     	    Z80ASM 1.32 Page   8
M72A-DD Z80

  407                   					; angesprochen, bei Mini mit Seitenpruefung auf 1.
  408                   					; nur fuer SD
  409                   
  410 F16B              maxi:					; c=0,1,2,3
  411                   					; 0,2 gekoppelt  1,3 gekoppelt
  412 F16B  CD F171     	call setcod
  413 F16E  C3 F1D5     	jp flop 			; sso-flag auf 0 setzen, jedoch stepflag
  414                   					; gueltig wenn bit 7 gesetzt.
  415                   
  416 F171              setcod:
  417 F171  79          	ld a,c  			; SD MAXI
  418 F172  E6 03       	and 3  			; muss Bereich 0..3 sein
  419 F174  FE 00       	cp 0  			; 0 seite 0
  420 F176  20 03       	jr nz,max1
  421 F178  0E 11       	ld c,00010001b 		; LW 1
  422 F17A  C9          	ret
  423 F17B              max1:
  424 F17B  FE 01       	cp 1
  425 F17D  20 03       	jr nz,max2
  426 F17F  0E 12       	ld c,00010010b 		; LW 2 seite 0
  427 F181  C9          	ret
  428 F182              max2:
  429 F182  FE 02       	cp 2
  430 F184  20 03       	jr nz,max3
  431 F186  0E 91       	ld c,10010001b 		; LW 1 seite 1
  432 F188  C9          	ret
  433 F189              max3:
  434 F189  0E 92       	ld c,10010010b 		; LW 2 seite 1
  435 F18B  C9          	ret
  436                   
  437                   
  438 F18C              set2cod:
  439 F18C  E6 03       	and 3  			;0,1,2,3 erlaubt
  440 F18E  FE 00       	cp 0
  441 F190  20 03       	jr nz,min1
  442 F192  0E 01       	ld c,00000001b 		; LW 1 seite 0
  443 F194  C9          	ret
  444 F195              min1:
  445 F195  FE 01       	cp 1
  446 F197  20 03       	jr nz,min2
  447 F199  0E 81       	ld c,10000001b 		; LW 1 seite 1
  448 F19B  C9          	ret
  449 F19C              min2:
  450 F19C  FE 02       	cp 2
  451 F19E  20 03       	jr nz,min3
  452 F1A0  0E 02       	ld c,00000010b 		; LW 2 seite 0
  453 F1A2  C9          	ret
  454                   
  455 F1A3              min3:
  456 F1A3  0E 82       	ld c,10000010b 		; LW 2 seite 1 
  457 F1A5  C9          	ret
  458                   ;
  459 F1A6              mini:					;  rest unzul.
  460                   					; 10,11 12,13 gekoppelt, d0,d1,d2,d3
  461                   					; bit 6 =Dichtecode 1=Double dense
  462 F1A6  79          	ld a,c
  463 F1A7  E6 7F       	and 7fh 			; bit 7 interessiert nicht
  464 F1A9  4F          	ld c,a
Z80ASM SuperFast Relocating Macro Assembler     	    Z80ASM 1.32 Page   9
M72A-DD Z80

  465 F1AA  F5          	push af
  466 F1AB  CD F18C     	call set2cod 		; codierung 2
  467 F1AE  F1          	pop af
  468 F1AF  E6 40       	and 40h 			; dd,sd 
  469                   				;1 	if z  	; =0 sd
  470 F1B1  C2 F1BB     	JP NZ,.L3
  471 F1B4  79          	ld a,c
  472 F1B5  F6 30       	or 00110000b 		; SD MINI
  473 F1B7  4F          	ld c,a
  474                   				;1 	else
  475 F1B8  C3 F1BF     	JP .L4
  476 F1BB              .L3:
  477 F1BB  79          	ld a,c
  478 F1BC  F6 20       	or 00100000b 		; DD MINI
  479 F1BE  4F          	ld c,a
  480                   				;1 	endif
  481 F1BF              .L4:
  482 F1BF  3E 02       	ld a,2  			; sso-flag setzen
  483 F1C1  C3 F1D6     	jp flop1 			; ok ausfuehren
  484                   
  485                   		;*****************************************
  486                   		;* Floppy-Unterprogramme fuer FLO2       *
  487                   		;* verwendet 1797 als Controller         *
  488                   		;* Version 1.0   840506                  *
  489                   		;* Rolf-Dieter Klein (C) 1984 Muenchen   *
  490                   		;*****************************************
  491                   
  492                   		; Die Routinen ermoeglichen sowohl den Anschluss
  493                   		; von Mini-,Mikro- als auch von Maxi-Laufwerken
  494                   		; Die Routinen muessen im RAM stehen 
  495                   		; da auch Buffer am Ende stehen
  496                   		; alle Buffer sind jedoch gesammelt
  497                   
  498                   		; FLO4    als Leseport
  499                   		;
  500                   		; 7 6 5 4 3 2 1 0
  501                   		;
  502                   		; DRQ   INTRQ   headld x      x x x x
  503                   		; 0=request
  504                   		;      0=request
  505                   		;  1=head down
  506                   		;
  507                   
  508                   
  509                   		; FLO4    als Schreibport
  510                   		;
  511                   		; 7 6 5 4 3 2 1 0
  512                   		;
  513                   		; sso moton mini dense d c b a
  514                   		;
  515                   		; 1=Seite 1
  516                   		; 0=Motor an
  517                   		;  1=Minilaufwerk
  518                   		;   1=Single Dense
  519                   		;    -------------------------
  520                   		;                                      1=Laufwerk an
  521                   		;
  522                   
Z80ASM SuperFast Relocating Macro Assembler     	    Z80ASM 1.32 Page  10
M72A-DD Z80

  523                   		; Bei einem Interrupt wird an diese Stelle gesprungen
  524                   		; Der Interrupt erfolgt vom Floppy-Controller
  525                   
  526 F1C4              intex:				; Das INT-Program arbeitet nicht als Unterprogramm
  527 F1C4  F1          	pop af  			; alte Ret-Adresse vernichten
  528 F1C5  DB C0       	in a,(flo) 		; Status lesen und INT loeschen
  529 F1C7  FB          	ei  				; Interrupt wieder freigeben
  530 F1C8  ED 4D       	reti  			; zurueck zum vorherigen Aufrufer
  531                   
  532 F1CA              iniflp:				; Floppy Routinen Init
  533 F1CA  3E 02       	ld a,2  			; 3= langsamste Steprate
  534 F1CC  32 F3BC     	ld (steprate),a 	; einstellen, kein SSO
  535 F1CF  3E FF       	ld a,0ffh
  536 F1D1  32 F3C5     	ld (drvat),a 		; Drive ungueltig
  537 F1D4  C9          	ret 
  538                   
  539         0038      	intvek equ 38h 		; Interruptziel
  540                   
  541 F1D5              flop:					; Haupteingang der Floppy-Routinen
  542 F1D5  AF          	xor a  			; sso-Flag auf 0 setzen
  543 F1D6              flop1:				; a=sso flag, nur 2 zunlaessig
  544 F1D6  32 F3BD     	ld (ssoflag),a 		; ok setzen hier moeglich
  545                   					; hl = Ziel oder Quelladresse
  546                   					; E= Sektor D= Track
  547                   					; C= Laufwerkscode+Dichtecode+Seite
  548                   					; B= 0 dann Steprate setzen+SSO-Flag
  549                   					;  = 1 dann lesen
  550                   					;  = 2 dann schreiben
  551 F1D9              cflo1:
  552 F1D9  F5          	push af  			;entscheiden FLO1 oder FLO2
  553 F1DA  3A F43B     	ld a,(floc0)
  554                   					;1 	if a=1  	;1 = flo1
  555 F1DD  FE 01       	CP 1  
  556 F1DF  C2 F1E8     	JP NZ,.L5
  557 F1E2  79          	ld a,c
  558 F1E3  E6 BF       	and 10111111b 		;kein autowait 
  559                   
  560 F1E5  EE 10       	xor 10h 			;invertieren Dichtebit fuer FLO1
  561 F1E7  4F          	ld c,a
  562                   					;1 	endif
  563 F1E8              .L5:
  564 F1E8  F1          	pop af
  565 F1E9  ED 73 F3BE  	ld (sp0),sp 		; Stack umsetzen, da Tiefe ggf zu gross
  566 F1ED  31 F43A     	ld sp,tstack 		; fuer BDOS
  567                   
  568 F1F0  3E D0       	ld a,0d0h
  569 F1F2  D3 C0       	out (flo),a 		; Floppy-Controller ruecksetzen
  570 F1F4  3A 0038     	ld a,(intvek)
  571 F1F7  32 F3C0     	ld (locint),a
  572 F1FA  3E C3       	ld a,0c3h 			; JP - Befehl
  573 F1FC  32 0038     	ld (intvek),a
  574 F1FF  E5          	push hl 			; Ziel, Quelladresse
  575 F200  2A 0039     	ld hl,(intvek+1)
  576 F203  22 F3C1     	ld (locint+1),hl
  577 F206  21 F1C4     	ld hl,intex 		; JP INTEX ablegen auf intvek
  578 F209  22 0039     	ld (intvek+1),hl
  579 F20C  E1          	pop hl
  580 F20D  DB C0       	in a,(flo)			; Status - Port
Z80ASM SuperFast Relocating Macro Assembler     	    Z80ASM 1.32 Page  11
M72A-DD Z80

  581 F20F  ED 56       	im 1  			; Mode 1 einstellen
  582 F211  FB          	ei  				; Interrupt freigeben
  583 F212  CD F2BD     	call softex
  584 F215  F3          	di  				; Sperren Int
  585 F216  F5          	push af 			; Status
  586 F217  3A F3C0     	ld a,(locint)
  587 F21A  32 0038     	ld (intvek),a 		; zurueckspeichern
  588 F21D  E5          	push hl
  589 F21E  2A F3C1     	ld hl,(locint+1)
  590 F221  22 0039     	ld (intvek+1),hl
  591 F224  E1          	pop hl
  592 F225  F1          	pop af
  593 F226  ED 7B F3BE  	ld sp,(sp0) 		; und wieder user-stack verwenden
  594 F22A  C9          	ret
  595                   
  596                   		; Diverse Unterprogramme
  597                   
  598 F22B              setup:				; testet ob der Kopf noch
  599                   					; geladen ist und setzt die
  600 F22B  06 00       	ld b,0  			; Flag fuer SSO-Bit
  601 F22D  3A F3C4     	ld a,(ccode) 		; wenn Bit 7 gesetzt, dann abfragen
  602 F230  E6 80       	and 80h
  603 F232  28 11       	jr z,set2up 		; Seite 0, immer mit SSO=0
  604 F234  3A F3BC     	ld a,(steprate) 	; jetzt pruefen ob flags da
  605 F237  E6 80       	and 80h 			;<>0, dann SSO setzen, wenn seite 1
  606 F239  28 04       	jr z,set1up 		;=0, dann code 0, oder SSOFLAG
  607 F23B  06 02       	ld b,2  			;SSO setzen 
  608 F23D  18 06       	jr set2up
  609 F23F              set1up:				; pruefen ob SSO-Flag
  610 F23F  3A F3BD     	ld a,(ssoflag) 		; ok, 2=Flag
  611 F242  E6 02       	and 2  			; SSO-Bit
  612 F244  47          	ld b,a  			; 0,2 erlaubt 
  613 F245              set2up:		
  614                   					; entsprechenden Bits
  615 F245  DB C4       	in a,(flo4) 		; Status Port
  616 F247  E6 20       	and 20h 			; Head-Load Bit
  617 F249  20 04       	jr nz,noset 		; =1 dann Kopf auf Diskette
  618 F24B  78          	ld a,b
  619 F24C  F6 04       	or 4  			; sonst Bitmaske fuer headdown
  620 F24E  C9          	ret
  621 F24F              noset:
  622 F24F  78          	ld a,b
  623 F250  C9          	ret  				; Code belassen.
  624                   
  625 F251              rdflp:				; einen Sektor lesen
  626                   					; e=sektor nr
  627 F251  79          	ld a,c
  628 F252  D3 C4       	out (flo4),a 		; erst mal Dichtecode setzen und Seite
  629 F254  7B          	ld a,e
  630 F255  D3 C2       	out (flo2),a 		; ins Sektorregister
  631 F257  0E C3       	ld c,flo3 			; Adresse Datenport dann nach c
  632 F259  CD F22B     	call setup 			; Register A vorbereiten
  633 F25C  C6 88       	add a,88h 			; Lese-Befehl, sidesel=0
  634 F25E  D3 C0       	out (flo),a 		; Befehl ausfuehren
  635 F260              rd1:
  636 F260  DB C4       	in a,(flo4) 		; DRQ schon da ?
  637 F262  07          	rlca  			; bit7 = drq bit6 = int
  638 F263  D2 F260     	jp nc,rd1 			; bis drq=1 da ist
Z80ASM SuperFast Relocating Macro Assembler     	    Z80ASM 1.32 Page  12
M72A-DD Z80

  639 F266  ED A2       	ini  				; dann Transport moeglich
  640 F268  C3 F260     	jp rd1  			; und alles wiederholen bis INT
  641                   
  642                   
  643 F26B              wrflp:				; Floppy-Sektor schreiben
  644 F26B  79          	ld a,c
  645 F26C  D3 C4       	out (flo4),a 		; erst mal Seite anwaehlen und Dichte
  646 F26E  7B          	ld a,e  			; Sektorregister setzen
  647 F26F  D3 C2       	out (flo2),a
  648 F271  0E C3       	ld c,flo3			; Adresse Datenport laden
  649 F273  CD F22B     	call setup			; E-Code in A laden
  650 F276  C6 A8       	add a,0a8h			; Befehl Schreibe-Sektor
  651 F278  D3 C0       	out (flo),a 		; und Befehl ausfuehren
  652 F27A              wr1:
  653 F27A  DB C4       	in a,(flo4)			; warten bis DRQ da
  654 F27C  07          	rlca
  655 F27D  D2 F27A     	jp nc,wr1 			; dann Wert ausgeben
  656 F280  ED A3       	outi  			; mit Blockbefehl
  657 F282  C3 F27A     	jp wr1  			; verlassen nur durch INT
  658                   
  659 F285              wawa:					; Warteschleife fuer einige ms
  660 F285  C5          	push bc 			; pro Schleife ca 6ys bei 4MHz
  661 F286  01 01F4     	ld bc,500 			; 500*6ys Dauer
  662 F289  CD F28E     	call delay
  663 F28C  C1          	pop bc
  664 F28D  C9          	ret
  665                   
  666 F28E              delay:
  667 F28E  0B          	dec bc
  668 F28F  78          	ld a,b
  669 F290  B1          	or c
  670 F291  C2 F28E     	jp nz,delay
  671 F294  C9          	ret
  672                   
  673                   
  674 F295              seek:					; Spur anfahren C=Drive D=Spur E=Sektor
  675 F295  CD F285     	call wawa 			; Sicherheitshalber warten
  676 F298  79          	ld a,c
  677 F299  D3 C4       	out (flo4),a 		; Drive-Code und Dichte sowie Seite
  678 F29B  7B          	ld a,e
  679 F29C  D3 C2       	out (flo2),a 		; Sektor
  680 F29E  7A          	ld a,d
  681 F29F  D3 C3       	out (flo3),a 		; Spur
  682 F2A1  06 1C       	ld b,1ch 			; Seek-Befehl
  683 F2A3  3A F3BC     	ld a,(steprate)
  684 F2A6  E6 03       	and 3  			; 0,1,2,3  zulaessig
  685 F2A8  B0          	or b  			; Seek Befehl zusammen mit Steprate
  686 F2A9  D3 C0       	out (flo),a 		; als Befehl ausgeben
  687 F2AB  76          	halt  			; warten bis INT
  688                   
  689 F2AC              rstore:				; Kopf auf Spur 0 stellen
  690 F2AC  CD F285     	call wawa
  691 F2AF  79          	ld a,c  			; Laufwerkscode (drive)
  692 F2B0  D3 C4       	out (flo4),a 		; mit Dichtecode etc. ausgeben
  693 F2B2  06 08       	ld b,8  			; nur Head-load, kein verify
  694 F2B4  3A F3BC     	ld a,(steprate)
  695 F2B7  E6 03       	and 3  			; 0,1,2,3 zulaessig
  696 F2B9  B0          	or b  			; als Befehl kombiniert
Z80ASM SuperFast Relocating Macro Assembler     	    Z80ASM 1.32 Page  13
M72A-DD Z80

  697 F2BA  D3 C0       	out (flo),a 		; und ausfuehren
  698 F2BC  76          	halt  			; bis INT dort warten
  699                   
  700                   
  701 F2BD              softex:		; Floppy-Kernroutinen
  702                   
  703                   					; hl=adresse, d=track e=sektor
  704                   					; b=Befehl 0=Steprate setzen 1=read 2=write
  705                   					; c=Laufwerkscode
  706                   					;   aufgebaut wie Statusregister
  707                   					; 7    6    5    4    3    2    1    0
  708                   					; sso  mot  min  dens d    d    d    d
  709                   					; sso  = seitenauswahl 1=seite 1
  710                   					; mot  = motor on code std=0
  711                   					; min  = 1 bei Minilaufwerken
  712                   					; dens = 1 bei Single Dense Aufzeichnung
  713                   					; d=binaerer Laufwerkscode
  714                   					;   normalerweise nur 1,2,4,8 moeglich
  715                   					;   Kombinationen moeglich, wenn binaere
  716                   					;   Dekodierung beim Laufwerk verwendet wird
  717                   
  718 F2BD  78          	ld a,b
  719 F2BE  B7          	or a
  720 F2BF  20 08       	jr nz, soft1  		; dann Steprate in Register D (0..3)
  721 F2C1  7A          	ld a,d   			;(+80h =SSO verwenden und pruefen).
  722 F2C2  E6 83       	and 83h  			; Bit 7=SSO-Flag bei Zugriffen wichtig,
  723 F2C4  32 F3BC     	ld (steprate),a		; die die zweite Seite verwenden.
  724 F2C7  AF          	xor a
  725 F2C8  C9          	ret
  726                   
  727 F2C9              soft1:
  728 F2C9  AF          	xor a
  729 F2CA  32 F3C3     	ld (fehza),a 		; Fehlerzahl 0
  730 F2CD  79          	ld a,c
  731 F2CE  32 F3C4     	ld (ccode),a 		; Drive-Code
  732 F2D1  E6 0F       	and 0fh 			; fuer Vergleich
  733 F2D3  4F          	ld c,a  			; wieder zurueck
  734 F2D4  3A F3C5     	ld a,(drvat)
  735 F2D7  FE FF       	cp 0ffh 			; ungueltig, dann setzen noetig
  736 F2D9  28 14       	jr z,notdef
  737 F2DB  E6 0F       	and 0fh 			; nur Laufwerksnummer relevant
  738 F2DD  B9          	cp c  			; Vergleich ob Laufwerkewechsel
  739 F2DE  CA F31D     	jp z,nurseek 		; nur Seek noetig
  740 F2E1  E5          	push hl
  741 F2E2  C5          	push bc
  742 F2E3  21 F3C6     	ld hl,drvtab 		; Basisadresse
  743 F2E6  4F          	ld c,a
  744 F2E7  06 00       	ld b,0  			; Alter Laufwerktrack merken
  745 F2E9  09          	add hl,bc
  746 F2EA  DB C1       	in a,(flo1) 		; Tracknr
  747 F2EC  77          	ld (hl),a 			; und dort ablegen
  748 F2ED  C1          	pop bc
  749 F2EE  E1          	pop hl
  750 F2EF              notdef:				; Drive nur laden
  751 F2EF  E5          	push hl
  752 F2F0  C5          	push bc
  753 F2F1  3A F3C4     	ld a,(ccode) 		; neues Laufwerk
  754 F2F4  E6 0F       	and 0fh 			; nur Laufwerkscode
Z80ASM SuperFast Relocating Macro Assembler     	    Z80ASM 1.32 Page  14
M72A-DD Z80

  755 F2F6  4F          	ld c,a
  756 F2F7  06 00       	ld b,0
  757 F2F9  21 F3C6     	ld hl,drvtab 		; Tabellenstart
  758 F2FC  09          	add hl,bc 			; hl zeigt auf Laufwerkstrack
  759 F2FD  7E          	ld a,(hl)
  760 F2FE  D3 C1       	out (flo1),a 		; und ins Register des FDs
  761 F300  C1          	pop bc
  762 F301  E1          	pop hl
  763 F302  3A F3C4     	ld a,(ccode)
  764 F305  32 F3C5     	ld (drvat),a 		; ist nun neues Laufwerk
  765 F308  C5          	push bc
  766 F309  01 00FA     	ld bc,1000*3/12		; ca 1ms warten
  767 F30C  CD F28E     	call delay
  768 F30F  3A F3C4     	ld a,(ccode) 		; Dann neues Laufwerk ansprechen
  769 F312  D3 C4       	out (flo4),a
  770 F314  01 0B65     	ld bc,2917			; ca 35ms .. 15ms
  771 F317  CD F28E     	call delay			; um head-load-Zeit zu beruecksichtigen 
  772 F31A  C1          	pop bc  			; alte Codes zurueck
  773 F31B  18 06       	jr nur1 			; Immer auf ready pruefen, da
  774                   					; head down sein kann und dennoch
  775                   					; nicht ready
  776                   
  777 F31D              nurseek:
  778 F31D  DB C4       	in a,(flo4) 		; wenn head down dann kein dummyseek
  779 F31F  E6 20       	and 20h
  780 F321  20 0D       	jr nz,nodum
  781 F323              nur1:					; immer einsprung
  782 F323  3A F3C4     	ld a,(ccode)
  783 F326  4F          	ld c,a
  784 F327  CD F3B2     	call seekex 		; seek selekt dummy nur fuer readytest
  785 F32A  DB C0       	in a,(flo)			; test Status
  786 F32C  E6 80       	and 80h 			; fuer Ready
  787 F32E  20 F3       	jr nz,nur1			; Wiederhole solange bis Laufwerk READY
  788 F330              nodum:				; Einsprung head down ok
  789 F330  DB C1       	in a,(flo1) 		; nun pruefen of Tracks gleich sind
  790 F332  FE FF       	cp 0ffh 			; nicht definiert
  791 F334  28 0F       	jr z,try1 			; dann zuerst RESTORE
  792 F336  BA          	cp d  			; oder schon auf dem Track
  793 F337  CA F364     	jp z,sk11 			; ja dann nur lesen,schreiben
  794 F33A              	try:  			; SEEK ausfuehren
  795 F33A  3A F3C4     	ld a,(ccode)
  796 F33D  4F          	ld c,a
  797 F33E  CD F3B2     	call seekex 		; und Track anfahren Reg retten
  798 F341  E6 90       	and 10010000b 		; Fehlermaske
  799 F343  28 1F       	jr z,sk11 			; ja dann R/W moeglich
  800 F345              try1:					; Laufwerk normieren und RSTORE
  801 F345  3A F3C4     	ld a,(ccode)
  802 F348  4F          	ld c,a
  803 F349  E5          	push hl
  804 F34A  D5          	push de
  805 F34B  C5          	push bc
  806 F34C  CD F2AC     	call rstore
  807 F34F  C1          	pop bc
  808 F350  D1          	pop de
  809 F351  E1          	pop hl
  810 F352  3A F3C3     	ld a,(fehza) 		; Fehler erhoehen
  811 F355  3C          	inc a
  812 F356  32 F3C3     	ld (fehza),a
Z80ASM SuperFast Relocating Macro Assembler     	    Z80ASM 1.32 Page  15
M72A-DD Z80

  813 F359  FE 0A       	cp 10  			; bei 10 Fatal-Fehler
  814 F35B  38 DD       	jr c,try 			; sonst nochmals mit SEEK probieren
  815 F35D              error1:
  816 F35D  3E FF       	ld a,0ffh
  817 F35F  B7          	or a
  818 F360  37          	scf  				; 0ffh, carry als Fehlerflag
  819 F361  C9          	ret  				; ABBRUCH FATAL
  820                   
  821 F362              noerr1:				; Ausgang wenn kein Fehler da
  822 F362  AF          	xor a
  823 F363  C9          	ret
  824                   
  825                   
  826 F364              sk11:					; r/w ausfuehren
  827 F364  78          	ld a,b
  828 F365  FE 02       	cp 2
  829 F367  CA F390     	jp z,wrtex			; Schreibbefehl
  830 F36A  3A F3C4     	ld a,(ccode)
  831 F36D  4F          	ld c,a
  832 F36E  E5          	push hl
  833 F36F  D5          	push de
  834 F370  C5          	push bc
  835 F371  CD F251     	call rdflp			; und Lesen
  836 F374  C1          	pop bc
  837 F375  D1          	pop de
  838 F376  E1          	pop hl
  839 F377  E6 9C       	and 10011100b 		; Fehlermaske incl. Lost data
  840 F379  28 E7       	jr z,noerr1 		; ende
  841 F37B  E6 10       	and 00010000b 		; bei record not found SEEK
  842 F37D  20 C6       	jr nz,try1			; mit vorherigem Restore
  843 F37F  3A F3C3     	ld a,(fehza)
  844 F382  3C          	inc a
  845 F383  32 F3C3     	ld (fehza),a 		; CRC Fehler sonst
  846 F386  FE 05       	cp 5  			; kleiner als 5 dann nochmals probieren
  847 F388  38 DA       	jr c,sk11
  848 F38A  FE 0A       	cp 10
  849 F38C  38 B7       	jr c,try1 			; sonst rstore und seek
  850 F38E  18 CD       	jr error1 			; sonst FATAL - Fehler
  851                   
  852 F390              wrtex:				; Schreiben
  853 F390  3A F3C4     	ld a,(ccode)
  854 F393  4F          	ld c,a
  855 F394  E5          	push hl
  856 F395  D5          	push de
  857 F396  C5          	push bc
  858 F397  CD F26B     	call wrflp
  859 F39A  C1          	pop bc
  860 F39B  D1          	pop de
  861 F39C  E1          	pop hl
  862 F39D  E6 FC       	and 11111100b
  863 F39F  28 C1       	jr z,noerr1 		; alles ok
  864 F3A1  E6 10       	and 00010000b 		; record not found
  865 F3A3  20 A0       	jr nz,try1			; gleich neuen Seek ausfuehren
  866 F3A5  3A F3C3     	ld a,(fehza)
  867 F3A8  3C          	inc a
  868 F3A9  32 F3C3     	ld (fehza),a 
  869 F3AC  FE 04       	cp 4  			; recht bald, da i.A. nur record not fnd
  870 F3AE  38 95       	jr c,try1 			; daher nur 4 Versuche
Z80ASM SuperFast Relocating Macro Assembler     	    Z80ASM 1.32 Page  16
M72A-DD Z80

  871 F3B0  18 AB       	jr error1 			; FATAL FEHLER
  872                   
  873 F3B2              seekex:				; Seek ausfuehren
  874 F3B2  E5          	push hl
  875 F3B3  D5          	push de
  876 F3B4  C5          	push bc
  877 F3B5  CD F295     	call seek
  878 F3B8  C1          	pop bc
  879 F3B9  D1          	pop de
  880 F3BA  E1          	pop hl
  881 F3BB  C9          	ret
  882                   ;
  883                   ;***********************************
  884                   ; Speicher Definitionen  
  885                   ;***********************************
  886                   ;
  887                   		; Buffer Bereich fuer Floppy-Routinen
  888                   
  889 F3BC  00          steprate:	defb 0    		; Merker fuer die Steprate + SSO-Option
  890 F3BD  00          ssoflag:	defb 0    		; zusaetzlich, dominant, fuer MINI
  891 F3BE  0000        sp0:		defw 0    		; Stackmerker fuer BDOS
  892                   					; =2, dann mit sso, sonst 0
  893 F3C0  00 00 00    locint:	defb 0,0,0 	; Merker fuer alten Inhalt Intvektor
  894 F3C3  00          fehza:	defb 0    		; Fehlerzaehler fuer retry
  895 F3C4  00          ccode:	defb 0    		; Drive-Code
  896 F3C5  FF          drvat:	defb 0ffh  	; letztes Laufwerk
  897 F3C6  FF FF FF FF drvtab:	defb 0ffh,0ffh,0ffh,0ffh 	; 16 moegliche Laufwerke
  898 F3CA  FF FF FF FF 		defb 0ffh,0ffh,0ffh,0ffh
  899 F3CE  FF FF FF FF 		defb 0ffh,0ffh,0ffh,0ffh
  900 F3D2  FF FF FF FF 		defb 0ffh,0ffh,0ffh,0ffh
  901 F3D6    0064      		defs 100   			; lokaler Stack 
  902 F43A  00          tstack:	defb 0
  903                   ;
  904 F43B  00          floc0:	defb 0  	;0=FLO2, 1=FLO1
  905                   
  906                   ;************* ENDE FLO2-Routinen ************
  907                   ;
  908                   ;++++++++++++++++++++++++++++++++++++++++++++++++++++++++++
  909                   ;Hier beginnen die Unterprogramme des Monitor
  910                   ;++++++++++++++++++++++++++++++++++++++++++++++++++++++++++
  911                   ;
  912                   ;Puts a single char (byte value) on serial output
  913                   ;Call with char to send in A register. Uses B register
  914                   ;
  915 F43C  4F          write_char:	ld	c,a				;store char
  916 F43D  C3 F060     			jp	TTYOUT
  917                   ;
  918                   ;Subroutine to write a zero-terminated string to serial output
  919                   ;Pass address of string in HL register
  920                   ;No error checking
  921 F440              write_string:
  922 F440  DB F1       			in 	a,(SIOASTS)		;read status
  923 F442  E6 04       			and 	TXRDY				;check TxRDY bit
  924 F444  CA F440     			jp 	z,write_string		;loop if not set
  925 F447  7E          			ld 	a,(hl)			;get char from string
  926 F448  A7          			and 	a				;check if 0
  927 F449  C8          			ret 	z				;alles ausgegeben, dann zurueck
  928 F44A  D3 F0       			out 	(SIOADAT),a		;no, write char to output
Z80ASM SuperFast Relocating Macro Assembler     	    Z80ASM 1.32 Page  17
M72A-DD Z80

  929 F44C  23          			inc 	hl				;next char in string
  930 F44D  C3 F440     			jp 	write_string		;start over
  931                   ;
  932                   ;Binary loader. Receive a binary file, place in memory.
  933                   ;Address of load passed in HL, length of load (= file length) in BC
  934 F450  DB F1       bload:		in 	a,(SIOASTS)		;get status
  935 F452  E6 01       			and 	RXRDY				;check RxRDY bit
  936 F454  CA F450     			jp 	z,bload			;not ready, loop
  937 F457  DB F0       			in	a,(SIOADAT)
  938 F459  77          			ld	(hl),a
  939 F45A  23          			inc	hl
  940 F45B  0B          			dec	bc				;byte counter
  941 F45C  78          			ld	a,b			;need to test BC this way because
  942 F45D  B1          			or	c			;dec rp instruction does not change flags
  943 F45E  C2 F450     			jp	nz,bload
  944 F461  C9          			ret
  945                   ;
  946                   ;Binary dump to port. Send a stream of binary data from memory to serial output
  947                   ;Address of dump passed in HL, length of dump in BC
  948 F462  DB F1       bdump:		in 	a,(SIOASTS)		;get status
  949 F464  E6 04       			and 	TXRDY				;check TxRDY bit
  950 F466  CA F462     			jp 	z,bdump			;not ready, loop
  951 F469  7E          			ld	a,(hl)
  952 F46A  D3 F0       			out	(SIOADAT),a
  953 F46C  23          			inc	hl
  954 F46D  0B          			dec	bc
  955 F46E  78          			ld	a,b			;need to test this way because
  956 F46F  B1          			or	c			;dec rp instruction does not change flags
  957 F470  C2 F462     			jp	nz,bdump
  958 F473  C9          			ret
  959                   ;
  960                   ;Subroutine to get a string from serial input, place in buffer.
  961                   ;Buffer address passed in HL reg.
  962                   ;Uses A,BC,DE,HL registers (including calls to other subroutines).
  963                   ;Line entry ends by hitting return key. Return char not included in string (replaced by zero).
  964                   ;Backspace editing OK. No error checking.
  965                   ;
  966 F474  0E 00       get_line:		ld	c,000h		;line position
  967 F476  7C          			ld	a,h			;put original buffer address in de
  968 F477  57          			ld	d,a			;after this don't need to preserve hl
  969 F478  7D          			ld	a,l			;subroutines called don't use de
  970 F479  5F          			ld	e,a
  971 F47A  DB F1       get_line_next_char:	in 	a,(SIOASTS)		;get status
  972 F47C  E6 01       			and 	RXRDY			;check RxRDY bit
  973 F47E  CA F47A     			jp 	z,get_line_next_char	;not ready, loop
  974 F481  DB F0       			in 	a,(SIOADAT)	;get char
  975 F483  FE 0D       			cp	00dh			;check if return
  976 F485  C8          			ret	z			;yes, normal exit
  977 F486  FE 7F       			cp	07fh			;check if backspace (VT102 keys)
  978 F488  CA F49C     			jp	z,get_line_backspace	;yes, jump to backspace routine
  979 F48B  FE 08       			cp	008h			;check if backspace (ANSI keys)
  980 F48D  CA F49C     			jp	z,get_line_backspace	;yes, jump to backspace
  981 F490  CD F43C     			call	write_char		;put char on screen
  982 F493  12          			ld	(de),a		;store char in buffer
  983 F494  13          			inc	de			;point to next space in buffer
  984 F495  0C          			inc	c			;inc counter
  985 F496  3E 00       			ld	a,000h
  986 F498  12          			ld	(de),a		;leaves a zero-terminated string in buffer
Z80ASM SuperFast Relocating Macro Assembler     	    Z80ASM 1.32 Page  18
M72A-DD Z80

  987 F499  C3 F47A     			jp	get_line_next_char
  988 F49C  79          get_line_backspace:	ld	a,c		;check current position in line
  989 F49D  FE 00       			cp	000h			;at beginning of line?
  990 F49F  CA F47A     			jp	z,get_line_next_char	;yes, ignore backspace, get next char
  991 F4A2  1B          			dec	de			;no, erase char from buffer
  992 F4A3  0D          			dec	c			;back up one
  993 F4A4  3E 00       			ld	a,000h		;put a zero in buffer where the last char was
  994 F4A6  12          			ld	(de),a
  995 F4A7  21 FDFF     			ld	hl,erase_char_string	;ANSI sequence to delete one char from line
  996 F4AA  CD F440     			call	write_string		;transmits sequence to backspace and erase char
  997 F4AD  C3 F47A     			jp	get_line_next_char
  998                   ;
  999                   ;Creates a two-char hex string from the byte value passed in register A
 1000                   ;Location to place string passed in HL
 1001                   ;String is zero-terminated, stored in 3 locations starting at HL
 1002                   ;Also uses registers b,d, and e
 1003                   ;
 1004 F4B0  47          byte_to_hex_string:	ld	b,a		;store original byte
 1005 F4B1  CB 3F       			srl	a			;shift right 4 times, putting
 1006 F4B3  CB 3F       			srl	a			;high nybble in low-nybble spot
 1007 F4B5  CB 3F       			srl	a			;and zeros in high-nybble spot
 1008 F4B7  CB 3F       			srl	a
 1009 F4B9  16 00       			ld	d,000h		;prepare for 16-bit addition
 1010 F4BB  5F          			ld	e,a			;de contains offset
 1011 F4BC  E5          			push	hl			;temporarily store string target address
 1012 F4BD  21 F516     			ld	hl,hex_char_table	;use char table to get high-nybble character
 1013 F4C0  19          			add	hl,de			;add offset to start of table
 1014 F4C1  7E          			ld	a,(hl)		;get char
 1015 F4C2  E1          			pop	hl			;get string target address
 1016 F4C3  77          			ld	(hl),a		;store first char of string
 1017 F4C4  23          			inc	hl			;point to next string target address
 1018 F4C5  78          			ld	a,b			;get original byte back from reg b
 1019 F4C6  E6 0F       			and	00fh			;mask off high-nybble
 1020 F4C8  5F          			ld	e,a			;d still has 000h, now de has offset
 1021 F4C9  E5          			push	hl			;temp store string target address
 1022 F4CA  21 F516     			ld	hl,hex_char_table	;start of table
 1023 F4CD  19          			add	hl,de			;add offset
 1024 F4CE  7E          			ld	a,(hl)		;get char
 1025 F4CF  E1          			pop	hl			;get string target address
 1026 F4D0  77          			ld	(hl),a		;store second char of string
 1027 F4D1  23          			inc	hl			;point to third location
 1028 F4D2  3E 00       			ld	a,000h		;zero to terminate string
 1029 F4D4  77          			ld	(hl),a		;store the zero
 1030 F4D5  C9          			ret				;done
 1031                   ;
 1032                   ;Converts a single ASCII hex char to a nybble value
 1033                   ;Pass char in reg A. Letter numerals must be upper case.
 1034                   ;Return nybble value in low-order reg A with zeros in high-order nybble if no error.
 1035                   ;Return 0ffh in reg A if error (char not a valid hex numeral).
 1036                   ;Also uses b, c, and hl registers.
 1037 F4D6  21 F516     hex_char_to_nybble:	ld	hl,hex_char_table
 1038 F4D9  06 0F       			ld	b,00fh			;no. of valid characters in table - 1.
 1039 F4DB  0E 00       			ld	c,000h			;will be nybble value
 1040 F4DD  BE          hex_to_nybble_loop:	cp	(hl)			;character match here?
 1041 F4DE  CA F4EA     			jp	z,hex_to_nybble_ok	;match found, exit
 1042 F4E1  05          			dec	b				;no match, check if at end of table
 1043 F4E2  FA F4EC     			jp	m,hex_to_nybble_err	;table limit exceded, exit with error
 1044 F4E5  0C          			inc	c				;still inside table, continue search
Z80ASM SuperFast Relocating Macro Assembler     	    Z80ASM 1.32 Page  19
M72A-DD Z80

 1045 F4E6  23          			inc	hl
 1046 F4E7  C3 F4DD     			jp	hex_to_nybble_loop
 1047 F4EA  79          hex_to_nybble_ok:	ld	a,c			;put nybble value in a
 1048 F4EB  C9          			ret
 1049 F4EC  3E FF       hex_to_nybble_err:	ld	a,0ffh		;error value
 1050 F4EE  C9          			ret
 1051                   ;
 1052                   ;Converts a hex character pair to a byte value
 1053                   ;Called with location of high-order char in HL
 1054                   ;If no error carry flag clear, returns with byte value in register A, and
 1055                   ;HL pointing to next mem location after char pair.
 1056                   ;If error (non-hex char) carry flag set, HL pointing to invalid char
 1057 F4EF  7E          hex_to_byte:		ld	a,(hl)		;location of character pair
 1058 F4F0  E5          			push	hl				;store hl (hex_char_to_nybble uses it)
 1059 F4F1  CD F4D6     			call	hex_char_to_nybble
 1060 F4F4  E1          			pop	hl				;returns with nybble value in a reg, or 0ffh if error
 1061 F4F5  FE FF       			cp	0ffh				;non-hex character?
 1062 F4F7  CA F514     			jp	z,hex_to_byte_err	;yes, exit with error
 1063 F4FA  CB 27       			sla	a				;no, move low order nybble to high side
 1064 F4FC  CB 27       			sla	a
 1065 F4FE  CB 27       			sla	a
 1066 F500  CB 27       			sla	a
 1067 F502  57          			ld	d,a				;store high-nybble
 1068 F503  23          			inc	hl				;get next character of the pair
 1069 F504  7E          			ld	a,(hl)
 1070 F505  E5          			push	hl				;store hl
 1071 F506  CD F4D6     			call	hex_char_to_nybble
 1072 F509  E1          			pop	hl
 1073 F50A  FE FF       			cp	0ffh				;non-hex character?
 1074 F50C  CA F514     			jp	z,hex_to_byte_err	;yes, exit with error
 1075 F50F  B2          			or	d				;no, combine with high-nybble
 1076 F510  23          			inc	hl				;point to next memory location after char pair
 1077 F511  37          			scf
 1078 F512  3F          			ccf					;no-error exit (carry = 0)
 1079 F513  C9          			ret
 1080 F514  37          hex_to_byte_err:	scf				;error, carry flag set
 1081 F515  C9          			ret
 1082 F516  30 31 32 33 hex_char_table:		defm	"0123456789ABCDEF"	;ASCII hex table
 1083                   ;
 1084                   ;Subroutine to get a two-byte address from serial input.
 1085                   ;Returns with address value in HL
 1086                   ;Uses locations in RAM for buffer and variables
 1087 F526  21 D308     address_entry:	ld	hl,buffer			;location for entered string
 1088 F529  CD F474     			call	get_line			;returns with address string in buffer
 1089 F52C  21 D308     			ld	hl,buffer			;location of stored address entry string
 1090 F52F  CD F4EF     			call	hex_to_byte		;will get high-order byte first
 1091 F532  DA F548     			jp	c, address_entry_error	;if error, jump
 1092 F535  32 D301     			ld	(current_location+1),a	;store high-order byte, little-endian
 1093 F538  21 D30A     			ld	hl,buffer+2		;point to low-order hex char pair
 1094 F53B  CD F4EF     			call	hex_to_byte		;get low-order byte
 1095 F53E  DA F548     			jp	c, address_entry_error	;jump if error
 1096 F541  32 D300     			ld	(current_location),a	;store low-order byte in lower memory
 1097 F544  2A D300     			ld	hl,(current_location)	;put memory address in hl
 1098 F547  C9          			ret
 1099 F548  21 FE3D     address_entry_error:	ld	hl,address_error_msg
 1100 F54B  CD F440     			call	write_string
 1101 F54E  C3 F526     			jp	address_entry
 1102                   ;
Z80ASM SuperFast Relocating Macro Assembler     	    Z80ASM 1.32 Page  20
M72A-DD Z80

 1103                   ;Subroutine to get a decimal string, return a word value
 1104                   ;Calls decimal_string_to_word subroutine
 1105 F551  21 D308     decimal_entry:		ld	hl,buffer
 1106 F554  CD F474     			call	get_line			;returns with DE pointing to terminating zero
 1107 F557  21 D308     			ld	hl,buffer
 1108 F55A  CD F567     			call	decimal_string_to_word
 1109 F55D  D0          			ret	nc				;no error, return with word in hl
 1110 F55E  21 FEAF     			ld	hl,decimal_error_msg	;error, try again
 1111 F561  CD F440     			call	write_string
 1112 F564  C3 F551     			jp	decimal_entry
 1113                   ;
 1114                   ;Subroutine to convert a decimal string to a word value
 1115                   ;Call with address of string in HL, pointer to end of string in DE
 1116                   ;Carry flag set if error (non-decimal char)
 1117                   ;Carry flag clear, word value in HL if no error.
 1118 F567  42          decimal_string_to_word:	ld	b,d
 1119 F568  4B          			ld	c,e				;use BC as string pointer
 1120 F569  22 D300     			ld	(current_location),hl	;store addr. of start of buffer in RAM word variable
 1121 F56C  21 0000     			ld	hl,000h			;starting value zero
 1122 F56F  22 D306     			ld	(current_value),hl
 1123 F572  21 F5B7     			ld	hl,decimal_place_value	;pointer to values
 1124 F575  22 D304     			ld	(value_pointer),hl
 1125 F578  0B          decimal_next_char:	dec	bc			;next char in string (moving right to left)
 1126 F579  2A D300     			ld	hl,(current_location)	;check if at end of decimal string
 1127 F57C  37          			scf					;get ready to subtract de from buffer addr.
 1128 F57D  3F          			ccf					;set carry to zero (clear)
 1129 F57E  ED 42       			sbc	hl,bc				;keep going if bc > or = hl (buffer address)
 1130 F580  DA F58C     			jp	c,decimal_continue	;borrow means bc > hl
 1131 F583  CA F58C     			jp	z,decimal_continue	;z means bc = hl
 1132 F586  2A D306     			ld	hl,(current_value)	;return if de < buffer address (no borrow)
 1133 F589  37          			scf					;get value back from RAM variable
 1134 F58A  3F          			ccf
 1135 F58B  C9          			ret					;return with carry clear, value in hl
 1136 F58C  0A          decimal_continue:	ld	a,(bc)			;next char in string (right to left)
 1137 F58D  D6 30       			sub	030h				;ASCII value of zero char
 1138 F58F  FA F5B2     			jp	m,decimal_error		;error if char value less than 030h
 1139 F592  FE 0A       			cp	00ah				;error if byte value > or = 10 decimal
 1140 F594  F2 F5B2     			jp	p,decimal_error		;a reg now has value of decimal numeral
 1141 F597  2A D304     			ld	hl,(value_pointer)	;get value to add an put in de
 1142 F59A  5E          			ld	e,(hl)			;little-endian (low byte in low memory)
 1143 F59B  23          			inc	hl
 1144 F59C  56          			ld	d,(hl)
 1145 F59D  23          			inc	hl				;hl now points to next value
 1146 F59E  22 D304     			ld	(value_pointer),hl
 1147 F5A1  2A D306     			ld	hl,(current_value)	;get back current value
 1148 F5A4  3D          decimal_add:		dec	a			;add loop to increase total value
 1149 F5A5  FA F5AC     			jp	m,decimal_add_done	;end of multiplication
 1150 F5A8  19          			add	hl,de
 1151 F5A9  C3 F5A4     			jp	decimal_add
 1152 F5AC  22 D306     decimal_add_done:	ld	(current_value),hl
 1153 F5AF  C3 F578     			jp	decimal_next_char
 1154 F5B2  37          decimal_error:		scf
 1155 F5B3  C9          			ret
 1156 F5B4  C3 F5A4     			jp	decimal_add
 1157 F5B7  0001  000A  decimal_place_value:	defw	1,10,100,1000,10000
 1158                   ;
 1159                   ;Memory dump
 1160                   ;Displays a 256-byte block of memory in 16-byte rows.
Z80ASM SuperFast Relocating Macro Assembler     	    Z80ASM 1.32 Page  21
M72A-DD Z80

 1161                   ;Called with address of start of block in HL
 1162 F5C1              memory_dump:		
 1163 F5C1  22 D300     			ld	(current_location),hl	;store address of block to be displayed
 1164 F5C4  3E 00       			ld	a,000h
 1165 F5C6  32 D303     			ld	(byte_count),a		;initialize byte count
 1166 F5C9  32 D302     			ld	(line_count),a		;initialize line count
 1167 F5CC  C3 F601     			jp	dump_new_line
 1168 F5CF              dump_next_byte:	
 1169 F5CF  2A D300     			ld	hl,(current_location)	;get byte address from storage,
 1170 F5D2  7E          			ld	a,(hl)			;get byte to be converted to string
 1171 F5D3  23          			inc	hl				;increment address and
 1172 F5D4  22 D300     			ld	(current_location),hl	;store back
 1173 F5D7  21 D308     			ld	hl,buffer			;location to store string
 1174 F5DA  CD F4B0     			call	byte_to_hex_string	;convert
 1175 F5DD  21 D308     			ld	hl,buffer			;display string
 1176 F5E0  CD F440     			call	write_string
 1177 F5E3  3A D303     			ld	a,(byte_count)		;next byte
 1178 F5E6  3C          			inc	a
 1179 F5E7  CA F631     			jp	z,dump_done		;stop when 256 bytes displayed
 1180 F5EA  32 D303     			ld	(byte_count),a		;not finished yet, store
 1181 F5ED  3A D302     			ld	a,(line_count)		;end of line (16 characters)?
 1182 F5F0  FE 0F       			cp	00fh				;yes, start new line
 1183 F5F2  CA F601     			jp	z,dump_new_line
 1184 F5F5  3C          			inc	a				;no, increment line count
 1185 F5F6  32 D302     			ld	(line_count),a
 1186 F5F9  3E 20       			ld	a,020h			;print space
 1187 F5FB  CD F43C     			call	write_char
 1188 F5FE  C3 F5CF     			jp	dump_next_byte		;continue
 1189 F601              dump_new_line:	
 1190 F601  3E 00       			ld	a,000h		;reset line count to zero
 1191 F603  32 D302     			ld	(line_count),a			
 1192 F606  CD F6A7     			call	write_newline
 1193 F609  2A D300     			ld	hl,(current_location)	;location of start of line
 1194 F60C  7C          			ld	a,h				;high byte of address
 1195 F60D  21 D308     			ld	hl, buffer
 1196 F610  CD F4B0     			call	byte_to_hex_string	;convert
 1197 F613  21 D308     			ld	hl,buffer
 1198 F616  CD F440     			call	write_string		;write high byte
 1199 F619  2A D300     			ld	hl,(current_location)
 1200 F61C  7D          			ld	a,l				;low byte of address
 1201 F61D  21 D308     			ld	hl, buffer
 1202 F620  CD F4B0     			call	byte_to_hex_string	;convert
 1203 F623  21 D308     			ld	hl,buffer
 1204 F626  CD F440     			call	write_string		;write low byte
 1205 F629  3E 20       			ld	a,020h			;space
 1206 F62B  CD F43C     			call	write_char
 1207 F62E  C3 F5CF     			jp	dump_next_byte		;now write 16 bytes
 1208 F631  3E 00       dump_done:		ld	a,000h
 1209 F633  21 D308     			ld	hl,buffer
 1210 F636  77          			ld	(hl),a			;clear buffer of last string
 1211 F637  CD F6A7     			call	write_newline
 1212 F63A  C9          			ret
 1213                   ;
 1214                   ;Memory load
 1215                   ;Loads RAM memory with bytes entered as hex characters
 1216                   ;Called with address to start loading in HL
 1217                   ;Displays entered data in 16-byte rows.
 1218                   ;
Z80ASM SuperFast Relocating Macro Assembler     	    Z80ASM 1.32 Page  22
M72A-DD Z80

 1219 F63B  22 D300     memory_load:	ld	(current_location),hl
 1220 F63E  21 FE69     			ld	hl,data_entry_msg
 1221 F641  CD F440     			call	write_string
 1222 F644  C3 F68E     			jp	load_new_line
 1223 F647  CD F04C     load_next_char:		call	TTYIN
 1224 F64A  FE 0D       			cp	00dh				;return?
 1225 F64C  CA F6A3     			jp	z,load_done		;yes, quit
 1226 F64F  32 D308     			ld	(buffer),a
 1227 F652  CD F04C     			call	TTYIN
 1228 F655  FE 0D       			cp	00dh				;return?
 1229 F657  CA F6A3     			jp	z,load_done		;yes, quit
 1230 F65A  32 D309     			ld	(buffer+1),a
 1231 F65D  21 D308     			ld	hl,buffer
 1232 F660  CD F4EF     			call	hex_to_byte
 1233 F663  DA F699     			jp	c,load_data_entry_error	;non-hex character
 1234 F666  2A D300     			ld	hl,(current_location)	;get byte address from storage,
 1235 F669  77          			ld	(hl),a			;store byte
 1236 F66A  23          			inc	hl				;increment address and
 1237 F66B  22 D300     			ld	(current_location),hl	;store back
 1238 F66E  3A D308     			ld	a,(buffer)
 1239 F671  CD F43C     			call	write_char
 1240 F674  3A D309     			ld	a,(buffer+1)
 1241 F677  CD F43C     			call	write_char
 1242 F67A  3A D302     			ld	a,(line_count)		;end of line (16 characters)?
 1243 F67D  FE 0F       			cp	00fh				;yes, start new line
 1244 F67F  CA F68E     			jp	z,load_new_line
 1245 F682  3C          			inc	a				;no, increment line count
 1246 F683  32 D302     			ld	(line_count),a
 1247 F686  3E 20       			ld	a,020h			;print space
 1248 F688  CD F43C     			call	write_char
 1249 F68B  C3 F647     			jp	load_next_char		;continue
 1250 F68E              load_new_line:	
 1251 F68E  3E 00       			ld	a,000h			;reset line count to zero
 1252 F690  32 D302     			ld	(line_count),a
 1253 F693  CD F6A7     			call	write_newline
 1254 F696  C3 F647     			jp	load_next_char		;continue
 1255 F699              load_data_entry_error:
 1256 F699  CD F6A7     			call	write_newline
 1257 F69C  21 FE95     			ld	hl,data_error_msg
 1258 F69F  CD F440     			call	write_string
 1259 F6A2  C9          			ret
 1260 F6A3  CD F6A7     load_done:		call	write_newline
 1261 F6A6  C9          			ret
 1262                   ;
 1263                   ;Subroutine to start a new line
 1264 F6A7  3E 0D       write_newline:	ld	a,00dh			;ASCII carriage return character
 1265 F6A9  CD F43C     			call	write_char
 1266 F6AC  3E 0A       			ld	a,00ah			;new line (line feed) character
 1267 F6AE  CD F43C     			call	write_char
 1268 F6B1  C9          			ret
 1269                   ;
 1270                   ;Subroutine to read one IDE/ATA Disk sector (256 bytes)
 1271                   ;Address to place data passed in HL
 1272                   ;LBA bits 0 to 7 passed in C, bits 8 to 15 passed in B
 1273                   ;LBA bits 16 to 23 passed in E
 1274                   ;
 1275 F6B2              ide_read:
 1276 F6B2  DB 1F       rd_status_loop_1:	in	a,(IDESTAT)	;check status
Z80ASM SuperFast Relocating Macro Assembler     	    Z80ASM 1.32 Page  23
M72A-DD Z80

 1277 F6B4  E6 80       			and	80h				;check BSY bit
 1278 F6B6  C2 F6B2     			jp	nz,rd_status_loop_1	;loop until not busy
 1279 F6B9  DB 1F       rd_status_loop_2:	in	a,(IDESTAT)	;check	status
 1280 F6BB  E6 40       			and	40h				;check DRDY bit
 1281 F6BD  CA F6B9     			jp	z,rd_status_loop_2	;loop until ready
 1282 F6C0  3E 01       			ld	a,01h				;number of sectors = 1
 1283 F6C2  D3 1A       			out	(SECCND),a			;sector count register
 1284 F6C4  79          			ld	a,c
 1285 F6C5  D3 1B       			out	(LBA7),a			;lba bits 0 - 7
 1286 F6C7  78          			ld	a,b
 1287 F6C8  D3 1C       			out	(LBA15),a			;lba bits 8 - 15
 1288 F6CA  7B          			ld	a,e
 1289 F6CB  D3 1D       			out	(LBA23),a			;lba bits 16 - 23
 1290 F6CD  3E E0       			ld	a,11100000b		;LBA mode, select drive 0
 1291 F6CF  D3 1E       			out	(IDEHEAD),a			;drive/head register
 1292 F6D1  3E 20       			ld	a,20h				;Read sector command
 1293 F6D3  D3 1F       			out	(IDESTAT),a
 1294 F6D5  DB 1F       rd_wait_for_DRQ_set:	in	a,(IDESTAT)	;read status
 1295 F6D7  E6 08       			and	08h				;DRQ bit
 1296 F6D9  CA F6D5     			jp	z,rd_wait_for_DRQ_set	;loop until bit set
 1297 F6DC  DB 1F       rd_wait_for_BSY_clear:	in	a,(IDESTAT)
 1298 F6DE  E6 80       			and	80h
 1299 F6E0  C2 F6DC     			jp	nz,rd_wait_for_BSY_clear
 1300 F6E3  DB 1F       			in	a,(IDESTAT)		;clear INTRQ
 1301 F6E5  DB 18       read_loop:		in	a,(IDEDATA)		;get data
 1302 F6E7  77          			ld	(hl),a
 1303 F6E8  23          			inc	hl
 1304 F6E9  DB 1F       			in	a,(IDESTAT)		;check status
 1305 F6EB  E6 08       			and	08h				;DRQ bit
 1306 F6ED  C2 F6E5     			jp	nz,read_loop		;loop until cleared
 1307 F6F0  C9          			ret
 1308                   ;
 1309                   ;Subroutine to write one IDE/ATA Disk sector (256 bytes)
 1310                   ;Address of data to write to disk passed in HL
 1311                   ;LBA bits 0 to 7 passed in C, bits 8 to 15 passed in B
 1312                   ;LBA bits 16 to 23 passed in E
 1313                   ;
 1314 F6F1              ide_write:
 1315 F6F1              wr_status_loop_1:	
 1316 F6F1  DB 1F       			in	a,(IDESTAT)		;check status
 1317 F6F3  E6 80       			and	80h				;check BSY bit
 1318 F6F5  C2 F6F1     			jp	nz,wr_status_loop_1	;loop until not busy
 1319 F6F8              wr_status_loop_2:
 1320 F6F8  DB 1F       			in	a,(IDESTAT)		;check status
 1321 F6FA  E6 40       			and	40h				;check DRDY bit
 1322 F6FC  CA F6F8     			jp	z,wr_status_loop_2	;loop until ready
 1323 F6FF  3E 01       			ld	a,01h				;number of sectors = 1
 1324 F701  D3 1A       			out	(SECCND),a			;sector count register
 1325 F703  79          			ld	a,c
 1326 F704  D3 1B       			out	(LBA7),a			;lba bits 0 - 7
 1327 F706  78          			ld	a,b
 1328 F707  D3 1C       			out	(LBA15),a			;lba bits 8 - 15
 1329 F709  7B          			ld	a,e
 1330 F70A  D3 1D       			out	(LBA23),a			;lba bits 16 - 23
 1331 F70C  3E E0       			ld	a,11100000b		;LBA mode, select drive 0
 1332 F70E  D3 1E       			out	(IDEHEAD),a		;drive/head register
 1333 F710  3E 30       			ld	a,30h				;Write sector command
 1334 F712  D3 1F       			out	(IDESTAT),a
Z80ASM SuperFast Relocating Macro Assembler     	    Z80ASM 1.32 Page  24
M72A-DD Z80

 1335 F714              wr_wait_for_DRQ_set:
 1336 F714  DB 1F       			in	a,(IDESTAT)		;read status
 1337 F716  E6 08       			and	08h				;DRQ bit
 1338 F718  CA F714     			jp	z,wr_wait_for_DRQ_set	;loop until bit set			
 1339 F71B              write_loop:	
 1340 F71B  7E          			ld	a,(hl)
 1341 F71C  D3 18       			out	(IDEDATA),a		;write data
 1342 F71E  23          			inc	hl
 1343 F71F  DB 1F       			in	a,(IDESTAT)		;read status
 1344 F721  E6 08       			and	08h				;check DRQ bit
 1345 F723  C2 F71B     			jp	nz,write_loop		;write until bit cleared
 1346 F726              wr_wait_for_BSY_clear:
 1347 F726  DB 1F       			in	a,(IDESTAT)
 1348 F728  E6 80       			and	80h
 1349 F72A  C2 F726     			jp	nz,wr_wait_for_BSY_clear
 1350 F72D  DB 1F       			in	a,(IDESTAT)		;clear INTRQ
 1351 F72F  C9          			ret
 1352                   ;
 1353                   
 1354                   ;-------------------------------------------------------------------------
 1355         F730      FREEMEM EQU $ 	;dynamischer Platz fuer Buffer etc.
 1356                   
 1357                   ;********************************************
 1358                   ;* Bereich kann geloescht werden unter CP/M *
 1359                   ;* um Platz fuer Puffer etc zu bieten       *
 1360                   ;********************************************
 1361                   ;
 1362 F730              FLPMSG:					;Floppy Boot Text
 1363 F730  0D 0A       	DEFB CR,LF,
 1364 F732  46 4C 4F 32 	DEFM "FLO2-Boot = 1, CF-Karte= 2, FLO1-Boot = 3 : ",0
 1365                   ;
 1366 F75F              mon_welcome:	
 1367 F75F  1B 5B 32 4A 			defm	ESC,"[2J",ESC,"[H",BELL,
 1368 F767  2D 2D 2D 2D 			defm	"----------------------------------------",CR,LF,
 1369 F791  20 20 20 20 			defm	"    MC-Computer ROM Monitor Ver. 1.0    ",CR,LF,
 1370 F7BB  2D 2D 2D 2D 			defm	"----------------------------------------",CR,LF,
 1371 F7E5  4D 65 6D 6F 			defm	"Memory frei 0H bis EFFFh, 60KB",CR,LF,
 1372 F805  4D 6F 6E 69 			defm	"Monitor belegt F000h bis FFFFh",CR,LF,0
 1373                   ;
 1374 F826              BEGIN1:	;hier findet die Kaltstart Hardware Initialisierung statt
 1375                   ;
 1376                   ;Initialisierung der Seriellen Schnittstelle
 1377 F826  0E F1       	LD C,SIOASTS
 1378 F828  06 08       	LD B,8
 1379 F82A  21 F83A     	LD HL,TABSIO
 1380 F82D  ED B3       	OTIR
 1381 F82F  0E F3       	LD C,SIOBSTS
 1382 F831  06 08       	LD B,8
 1383 F833  21 F842     	LD HL,TABSIB
 1384 F836  ED B3       	OTIR
 1385 F838  18 10       	JR SKSKL
 1386 F83A              TABSIO:
 1387 F83A  01 00       	DEFB 1,0
 1388 F83C  03 E1       	DEFB 3,11100001B		; -CTS UND -DCD ENABLE rev 3.4 term1
 1389 F83E  04 44       	DEFB 4,01000100B		; *16 Teiler 8Bit 1Stop no parity
 1390 F840  05 EA       	DEFB 5,11101010B		;dtr rts +12V bedeutet ready
 1391                   ;
 1392 F842              TABSIB:
Z80ASM SuperFast Relocating Macro Assembler     	    Z80ASM 1.32 Page  25
M72A-DD Z80

 1393 F842  01 00       	DEFB 1,0
 1394 F844  03 E1       	DEFB 3,11100001B		; -CTS UND -DCD ENABLE
 1395 F846  04 44       	DEFB 4,01000100B		; *16 Teiler 8Bit 1Stop no parity
 1396 F848  05 EA       	DEFB 5,11101010B		;dtr rts +12V bedeutet ready
 1397                   ;
 1398 F84A              SKSKL:	;Ende Init Serielle Schnittstelle
 1399                   ;
 1400 F84A              mon_cold_start:				;ab hier ist die Hardware lauffdhig und die
 1401                   						;Software wird aufgesetzt
 1402                   ;
 1403 F84A  3A 7000     	LD A,(7000H)			;ROM abschalten, unteren Speicher freigeben
 1404 F84D  AF          	XOR A					;Akku leeren
 1405 F84E  32 F10E     	LD (IOBYT),A			;alles auf Console schalten
 1406                   ;
 1407 F851  31 F855     	LD SP,AHEAD-4			;Stackpointer setzen
 1408 F854  C3 F0DB     	JP MEMSIZ+1
 1409 F857  F859        	DEFW AHEAD
 1410 F859              AHEAD:
 1411 F859  F9          	LD SP,HL
 1412 F85A  EB          	EX DE,HL
 1413 F85B  01 0023     	LD BC,ENDX-EXIT
 1414 F85E  21 FEF0     	LD HL,EXIT
 1415 F861  ED B0       	LDIR
 1416 F863  EB          	EX DE,HL
 1417 F864  01 FFA1     	LD BC,-5FH
 1418 F867  09          	ADD HL,BC
 1419 F868  E5          	PUSH HL
 1420 F869  21 0000     	LD HL,0
 1421 F86C  06 0A       	LD B,10 				;REGISTER
 1422 F86E              STKIT:
 1423 F86E  E5          	PUSH HL
 1424 F86F  10 FD       	DJNZ STKIT
 1425                   ;
 1426 F871  CD F6A7     call write_newline
 1427 F874  21 F75F     			ld	hl,mon_welcome		;MONITOR Welcome ausgeben
 1428 F877  CD F440     			call	write_string
 1429 F87A  CD F6A7     			call write_newline
 1430 F87D  C3 F9A3     			jp	help_jump			;Help Message ausgeben
 1431 F880  CD F6A7     			call write_newline
 1432                   ;
 1433 F883              mon_warm_start:						;Warm Start Einsprung die Initialisierungen
 1434                   								;sind berreits gemacht
 1435 F883  CD F6A7     			call	write_newline
 1436 F886  21 FD31     			ld	hl,prompt_message	;Prompt ausgeben
 1437 F889  CD F440     			call	write_string	
 1438 F88C  3E 3E       			ld	a,03eh			;">" Symbol laden
 1439 F88E  CD F43C     			call	write_char			;Ausgeben
 1440 F891  21 D308     			ld	hl,buffer
 1441 F894  CD F474     			call	get_line			;Eingabe abwarten (command)
 1442 F897  CD F6A7     			call	write_newline
 1443 F89A  CD F89E     			call	parse				;zum Kommando Interpreter springen
 1444                   								;kommt mit der Sprungadresse in HL zurueck
 1445 F89D  E9          			jp	(hl)
 1446                   ;
 1447                   ;Kommando Interpreter
 1448                   ;Parses an input line stored in buffer for available commands as described in parse table.
 1449                   ;Returns with address of jump to action for the command in HL
 1450                   ;
Z80ASM SuperFast Relocating Macro Assembler     	    Z80ASM 1.32 Page  26
M72A-DD Z80

 1451 F89E  01 FD65     parse:		ld	bc,parse_table		;bc is pointer to parse_table
 1452 F8A1  0A          parse_start:	ld	a,(bc)			;get pointer to match string from parse table
 1453 F8A2  5F          			ld	e,a
 1454 F8A3  03          			inc	bc
 1455 F8A4  0A          			ld	a,(bc)			
 1456 F8A5  57          			ld	d,a				;de will is pointer to strings for matching
 1457 F8A6  1A          			ld	a,(de)			;get first char from match string
 1458 F8A7  F6 00       			or	000h				;zero?
 1459 F8A9  CA F8C4     			jp	z,parser_exit		;yes, exit no_match
 1460 F8AC  21 D308     			ld	hl,buffer			;no, parse input string 
 1461 F8AF  BE          match_loop:	cp	(hl)				;compare buffer char with match string char
 1462 F8B0  C2 F8BE     			jp	nz,no_match		;no match, go to next match string
 1463 F8B3  F6 00       			or	000h				;end of strings (zero)?
 1464 F8B5  CA F8C4     			jp	z,parser_exit		;yes, matching string found
 1465 F8B8  13          			inc	de				;match so far, point to next char in match string
 1466 F8B9  1A          			ld	a,(de)			;get next character from match string
 1467 F8BA  23          			inc	hl				;and point to next char in input string
 1468 F8BB  C3 F8AF     			jp	match_loop			;check for match
 1469 F8BE  03          no_match:		inc	bc				;skip over jump target to
 1470 F8BF  03          			inc	bc
 1471 F8C0  03          			inc	bc				;get address of next matching string
 1472 F8C1  C3 F8A1     			jp	parse_start
 1473 F8C4  03          parser_exit:	inc	bc				;skip to address of jump for match
 1474 F8C5  0A          			ld	a,(bc)
 1475 F8C6  6F          			ld	l,a
 1476 F8C7  03          			inc	bc
 1477 F8C8  0A          			ld	a,(bc)
 1478 F8C9  67          			ld	h,a				;returns with jump address in hl
 1479 F8CA  C9          			ret
 1480                   ;
 1481                   ; --- BOOT Menue FLOPPY 1=FLO2, 2=CF-IDE, 3=FLO1 ---
 1482                   ;
 1483 F8CB              BOOT1:
 1484 F8CB  CD F1CA     	CALL INIFLP		;vektoren etc definieren
 1485 F8CE  21 F730     	ld	hl,FLPMSG		;Bootmessage ausgeben
 1486 F8D1  CD F440     	call	write_string
 1487 F8D4  CD F045     	CALL CI			;Zeichen einlesen
 1488 F8D7  E6 7F       	AND 7FH  			;ohne paritaet
 1489 F8D9  CD F43C     	CALL write_char		;eingelesenes Zeichen ausgeben
 1490 F8DC  79          	ld a,c			;Zeichen wieder holen
 1491 F8DD  FE 32       	cp "2"
 1492 F8DF  CA FA5F     	jp z,boot_jump		; 2= CF Karten Boot
 1493 F8E2  FE 33       	CP '3' 			; 3= boot mit FLO1
 1494 F8E4  C2 F8EF     	JP NZ,.L6
 1495 F8E7  3E 01       	ld a,1
 1496 F8E9  32 F43B     	ld (floc0),a 		; floc0 laden mit 1 = FLO1 
 1497 F8EC  C3 F8FE     	JP bootx			; jump zur Floppy Routine
 1498 F8EF              .L6:
 1499 F8EF  FE 31       	CP '1' 			; boot mit FLO2
 1500 F8F1  C2 F8FB     	JP NZ,.L8
 1501 F8F4  AF          	xor a
 1502 F8F5  32 F43B     	ld (floc0),a 		; floc0 laden mit 0 = FLO2
 1503 F8F8  C3 F8FE     	JP bootx
 1504 F8FB              .L8:
 1505 F8FB  C3 FA7C     	jp error
 1506                   
 1507 F8FE              bootx:
 1508                   ;---------- Floppy Boot --------------------------------------------------	
Z80ASM SuperFast Relocating Macro Assembler     	    Z80ASM 1.32 Page  27
M72A-DD Z80

 1509                   ;**************** Ueberspringt autom. Format Erkennung bei boot **********
 1510                   ;			fuer original l schen oder auskommentieren
 1511                   ;			2026 geaendert wg. Boot von DD Disketten
 1512 F8FE  0E 21       	ld c,00100001b 		; immer von Laufwerk A Mini Floppy Seite 0, DD booten
 1513 F900  21 0080     	ld hl,80h			; einfache Dichte Sprungziel lie t nur 128 Byte
 1514 F903  C3 F906     	jp exec1			; Erkennung ueberspringen
 1515                   ;**************************************************************************
 1516                   					; automatisch Format bestimmen, REV 1.1
 1517                   ;
 1518                   ;	ld c,00000001b 		; immer von Laufwerk A  Seite 0 booten
 1519                   ;	call getfl			; Formatierung bestimmen
 1520                   ;	jp c,error			; bei Fehler zurueck ins Menue	
 1521                   ;	ld hl,80h 			; bei einfacher Dichte nach 80h
 1522                   ;	bit 4,c  			; =0, dann dd, sonst sd
 1523                   ;	jr nz,exec1 		; sd
 1524                   ;	ld hl,0fc00h 		; sonst 1K Block ggf. dorthin.
 1525 F906              exec1:
 1526 F906  E5          	push hl 			; rev (1.5) 1.1
 1527 F907  06 01       	ld b,1  			; lesen
 1528 F909  16 00       	ld d,0  			; track 0
 1529 F90B  1E 01       	ld e,1  			; sektor 1
 1530 F90D  CD F1D5     	call flop
 1531 F910  E1          	pop hl  			; Sprungziel zurueck
 1532 F911  C2 FA7C     	jp nz,error
 1533 F914  E9          	jp (hl) 			; Starten sonst
 1534 F915  C3 FA7C     	jp error
 1535                   ;
 1536                   ; --- IOBYTE ASSIGNE ---
 1537                   ; 000000XX CONSOLE
 1538                   ; 0000XX00 READER
 1539                   ; 00XX0000 PUNCH
 1540                   ; XX000000 LISTER
 1541                   ; 00= TELETYPE CONS
 1542                   ;
 1543 F918              ASSIGN:		;ZUWEISUNG
 1544 F918  CD FAA8     	CALL TI
 1545 F91B  21 FEDC     	LD HL,LTBL
 1546 F91E  01 0400     	LD BC,400H
 1547 F921  11 0005     	LD DE,5
 1548 F924              AREP0:
 1549 F924  BE          	CP (HL)
 1550 F925  28 06       	JR Z,AREP1
 1551 F927  19          	ADD HL,DE
 1552 F928  0C          	INC C
 1553 F929  10 F9       	DJNZ AREP0
 1554 F92B  18 15       	JR LXERR
 1555 F92D              AREP1:
 1556 F92D  59          	LD E,C
 1557 F92E              AREP22:
 1558 F92E  CD FAA8     	CALL TI
 1559 F931  FE 3D       	CP "="
 1560 F933  20 F9       	JR NZ,AREP22
 1561 F935  CD FAA8     	CALL TI
 1562 F938  01 0400     	LD BC,400H
 1563 F93B              AREP33:
 1564 F93B  23          	INC HL
 1565 F93C  BE          	CP (HL)
 1566 F93D  28 06       	JR Z,LXA4
Z80ASM SuperFast Relocating Macro Assembler     	    Z80ASM 1.32 Page  28
M72A-DD Z80

 1567 F93F  0C          	INC C
 1568 F940  10 F9       	DJNZ AREP33
 1569 F942              LXERR:
 1570 F942  C3 FA7C     	JP ERROR
 1571 F945              LXA4:
 1572 F945  3E 03       	LD A,3
 1573 F947  1C          	INC E
 1574 F948              LXA5:
 1575 F948  1D          	DEC E
 1576 F949  28 08       	JR Z,LXA6
 1577 F94B  CB 21       	SLA  C
 1578 F94D  CB 21       	SLA  C
 1579 F94F  17          	RLA
 1580 F950  17          	RLA
 1581 F951  18 F5       	JR LXA5
 1582 F953              LXA6:
 1583 F953  2F          	CPL
 1584 F954  57          	LD D,A
 1585 F955              LXA7:
 1586 F955  CD FB40     	CALL PCHK
 1587 F958  30 FB       	JR NC,LXA7
 1588 F95A  3A F10E     	LD A,(IOBYT)
 1589 F95D  A2          	AND D
 1590 F95E  B1          	OR C
 1591 F95F  4F          	LD C,A
 1592 F960  C3 F0C8     	JP IOSET
 1593                   
 1594                   ;Ab hier kommen die Aufrufe der gewaehlten Kommandos (string match)
 1595                   ;
 1596                   ;Memory dump program
 1597                   ;Input 4-digit hexadecimal address, calls memory_dump subroutine
 1598                   ;
 1599 F963  21 FBC0     dump_jump:		ld	hl,dump_message		;Display greeting
 1600 F966  CD F440     			call	write_string
 1601 F969  21 FE04     			ld	hl,address_entry_msg	;get ready to get address
 1602 F96C  CD F440     			call	write_string
 1603 F96F  CD F526     			call	address_entry		;returns with address in HL
 1604 F972  CD F6A7     			call	write_newline
 1605 F975  CD F5C1     			call	memory_dump
 1606 F978  C3 F883     			jp	mon_warm_start
 1607                   ;
 1608                   ;Hex loader, displays formatted input
 1609                   ;
 1610 F97B  21 FBE6     load_jump:		ld	hl,load_message		;Display greeting
 1611 F97E  CD F440     			call	write_string		;get address to load
 1612 F981  21 FE04     			ld	hl,address_entry_msg	;get ready to get address
 1613 F984  CD F440     			call	write_string
 1614 F987  CD F526     			call	address_entry
 1615 F98A  CD F6A7     			call	write_newline
 1616 F98D  CD F63B     			call	memory_load
 1617 F990  C3 F883     			jp	mon_warm_start
 1618                   ;
 1619                   ;Jump and run do the same thing: get an address and jump to it
 1620                   ;
 1621 F993  21 FC14     run_jump:		ld	hl,run_message		;Display greeting
 1622 F996  CD F440     			call	write_string
 1623 F999  21 FE04     			ld	hl,address_entry_msg	;get ready to get address
 1624 F99C  CD F440     			call	write_string
Z80ASM SuperFast Relocating Macro Assembler     	    Z80ASM 1.32 Page  29
M72A-DD Z80

 1625 F99F  CD F526     			call	address_entry
 1626 F9A2  E9          			jp	(hl)
 1627                   ;
 1628                   ;Help and ? do the same thing, display the available commands
 1629                   ;
 1630 F9A3  21 FB7E     help_jump:		ld	hl,help_message
 1631 F9A6  CD F440     			call	write_string
 1632 F9A9  21 FB8A     			ld	hl,help_message1
 1633 F9AC  CD F440     			call	write_string
 1634 F9AF  21 FBA3     			ld	hl,help_message2
 1635 F9B2  CD F440     			call	write_string
 1636                   ;
 1637 F9B5  C3 F883     help_done:		jp	mon_warm_start
 1638                   ;
 1639                   ;Binary file load. Need both address to load and length of file
 1640                   ;
 1641 F9B8  21 FC39     bload_jump:	ld	hl,bload_message
 1642 F9BB  CD F440     			call	write_string
 1643 F9BE  21 FE04     			ld	hl,address_entry_msg
 1644 F9C1  CD F440     			call	write_string
 1645 F9C4  CD F526     			call	address_entry
 1646 F9C7  CD F6A7     			call	write_newline
 1647 F9CA  E5          			push	hl
 1648 F9CB  21 FD8D     			ld	hl,length_entry_string
 1649 F9CE  CD F440     			call	write_string
 1650 F9D1  CD F551     			call	decimal_entry
 1651 F9D4  44          			ld	b,h
 1652 F9D5  4D          			ld	c,l
 1653 F9D6  21 FC6A     			ld	hl,bload_ready_message
 1654 F9D9  CD F440     			call	write_string
 1655 F9DC  E1          			pop	hl
 1656 F9DD  CD F450     			call	bload
 1657 F9E0  C3 F883     			jp	mon_warm_start
 1658                   ;
 1659                   ;Binary memory dump. Need address of start of dump and no. bytes
 1660                   ;
 1661 F9E3  21 FC8D     bdump_jump:	ld	hl,bdump_message
 1662 F9E6  CD F440     			call	write_string
 1663 F9E9  21 FE04     			ld	hl,address_entry_msg
 1664 F9EC  CD F440     			call	write_string
 1665 F9EF  CD F526     			call	address_entry
 1666 F9F2  CD F6A7     			call	write_newline
 1667 F9F5  E5          			push	hl
 1668 F9F6  21 FDB6     			ld	hl,dump_entry_string
 1669 F9F9  CD F440     			call	write_string
 1670 F9FC  CD F551     			call	decimal_entry
 1671 F9FF  44          			ld	b,h
 1672 FA00  4D          			ld	c,l
 1673 FA01  21 FCBC     			ld	hl,bdump_ready_message
 1674 FA04  CD F440     			call	write_string
 1675 FA07  CD F04C     			call	TTYIN
 1676 FA0A  E1          			pop	hl
 1677 FA0B  CD F462     			call	bdump
 1678 FA0E  C3 F883     			jp	mon_warm_start
 1679                   ;
 1680                   ;Disk read. Need memory address to place data, LBA of sector to read
 1681                   ;
 1682 FA11  21 FCE2     iderd_jump:	ld	hl,iderd_message
Z80ASM SuperFast Relocating Macro Assembler     	    Z80ASM 1.32 Page  30
M72A-DD Z80

 1683 FA14  CD F440     			call	write_string
 1684 FA17  21 FE04     			ld	hl,address_entry_msg
 1685 FA1A  CD F440     			call	write_string
 1686 FA1D  CD F526     			call	address_entry
 1687 FA20  CD F6A7     			call	write_newline
 1688 FA23  E5          			push	hl
 1689 FA24  21 FDDD     			ld	hl,LBA_entry_string
 1690 FA27  CD F440     			call	write_string
 1691 FA2A  CD F551     			call	decimal_entry
 1692 FA2D  44          			ld	b,h
 1693 FA2E  4D          			ld	c,l
 1694 FA2F  1E 00       			ld	e,00h
 1695 FA31  E1          			pop	hl
 1696 FA32  CD F6B2     			call	ide_read
 1697 FA35  C3 F883     			jp	mon_warm_start
 1698                   ;
 1699                   ;Disk write
 1700                   ;
 1701 FA38  21 FD09     idewr_jump:	ld	hl,idewr_message
 1702 FA3B  CD F440     			call	write_string
 1703 FA3E  21 FE04     			ld	hl,address_entry_msg
 1704 FA41  CD F440     			call	write_string
 1705 FA44  CD F526     			call	address_entry
 1706 FA47  CD F6A7     			call	write_newline
 1707 FA4A  E5          			push	hl
 1708 FA4B  21 FDDD     			ld	hl,LBA_entry_string
 1709 FA4E  CD F440     			call	write_string
 1710 FA51  CD F551     			call	decimal_entry
 1711 FA54  44          			ld	b,h
 1712 FA55  4D          			ld	c,l
 1713 FA56  1E 00       			ld	e,00h
 1714 FA58  E1          			pop	hl
 1715 FA59  CD F6F1     			call	ide_write
 1716 FA5C  C3 F883     			jp	mon_warm_start
 1717                   ;
 1718                   ;Bootmenue
 1719                   ;
 1720 FA5F  21 8000     boot_jump:		ld	hl,08000h		;laedt Bootloader von IDE/ATA Disk
 1721                   							;in die ROM Adresse 08000h
 1722 FA62  01 0000     			ld	bc,0000h
 1723 FA65  1E 00       			ld	e,00h
 1724 FA67  CD F6B2     			call	ide_read
 1725 FA6A  C3 8000     			jp	08000h			;springt zur Ausfuehrung nach 08000h
 1726                   
 1727                   			
 1728                   ;
 1729                   ;Prints message for no match to entered command
 1730                   ;
 1731 FA6D  21 FB7B     no_match_jump:	ld	hl,no_match_message
 1732 FA70  CD F440     			call	write_string
 1733 FA73  21 D308     			ld	hl, buffer
 1734 FA76  CD F440     			call	write_string
 1735 FA79  C3 F883     			jp	mon_warm_start
 1736                   ;
 1737                   ;
 1738                   ;
 1739                   ;
 1740                   ;----------------------------------------------------------------------------
Z80ASM SuperFast Relocating Macro Assembler     	    Z80ASM 1.32 Page  31
M72A-DD Z80

 1741                   ;               Unterprogramme
 1742                   ;----------------------------------------------------------------------------
 1743                   ;
 1744                   ;---------- Message output Routine ----------
 1745                   ;
 1746                   ;Error Handling
 1747 FA7C              ERROR:
 1748 FA7C  CD F0DA     	CALL MEMSIZ
 1749 FA7F  11 FFEA     	LD DE,-22
 1750 FA82  19          	ADD HL,DE
 1751 FA83  F9          	LD SP,HL
 1752 FA84  0E 07       	LD C,7
 1753 FA86  CD F059     	CALL CO
 1754 FA89  0E 3F       	LD C,'?'
 1755 FA8B  CD F059     	CALL CO
 1756 FA8E  C3 F883     	JP mon_warm_start
 1757                   ;
 1758                   ; READER INPUT
 1759                   ; ABORT ON CARRY
 1760                   ; COMPARE WITH D
 1761 FA91              RIFF:
 1762 FA91  CD F06D     	CALL RI
 1763 FA94  38 E6       	JR C,ERROR
 1764 FA96  BA          	CP D
 1765 FA97  C9          	RET
 1766                   
 1767 FA98  E6 0F       	AND 0FH
 1768 FA9A  C6 90       	ADD A,90H
 1769 FA9C  27          	DAA 
 1770 FA9D  CE 40       	ADC A,40H
 1771 FA9F  27          	DAA
 1772 FAA0  4F          	LD C,A 	;HEX TO ASC
 1773 FAA1  C9          	RET
 1774                   ;
 1775 FAA2              KI:
 1776 FAA2  CD F045     	CALL CI
 1777 FAA5  E6 7F       	AND 7FH
 1778 FAA7  C9          	RET
 1779                   ;
 1780 FAA8              TI:
 1781 FAA8  CD FAA2     	CALL KI
 1782 FAAB  C8          	RET Z
 1783 FAAC  3C          	INC A
 1784 FAAD  F8          	RET M
 1785 FAAE  3D          	DEC A
 1786 FAAF  FE 0D       	CP 0DH
 1787 FAB1  C8          	RET Z
 1788 FAB2  FE 4E       	CP 'N'
 1789 FAB4  C8          	RET Z
 1790 FAB5  FE 6E       	CP 'n'
 1791 FAB7  28 0D       	JR Z,LXT
 1792 FAB9  C5          	PUSH BC
 1793 FABA  4F          	LD C,A
 1794 FABB  CD F059     	CALL CO
 1795 FABE  79          	LD A,C
 1796 FABF  C1          	POP BC
 1797 FAC0  FE 40       	CP 'A'-1
 1798 FAC2  D8          	RET C
Z80ASM SuperFast Relocating Macro Assembler     	    Z80ASM 1.32 Page  32
M72A-DD Z80

 1799 FAC3  FE 7B       	CP 'z'+1
 1800 FAC5  D0          	RET NC
 1801 FAC6              LXT:
 1802 FAC6  E6 5F       	AND 05FH
 1803 FAC8  C9          	RET
 1804                   ;
 1805                   ; Eingang nach einem Break-Point
 1806                   ;
 1807 FAC9              RESTA:
 1808                   
 1809 FAC9  E5          	PUSH HL
 1810 FACA  D5          	PUSH DE
 1811 FACB  C5          	PUSH BC
 1812 FACC  F5          	PUSH AF
 1813 FACD  CD F0DA     	CALL MEMSIZ
 1814 FAD0  EB          	EX DE,HL
 1815 FAD1  21 000A     	LD HL,10
 1816 FAD4  39          	ADD HL,SP
 1817 FAD5  06 04       	LD B,4
 1818 FAD7  EB          	EX DE,HL
 1819 FAD8              LXR0:
 1820 FAD8  2B          	DEC HL
 1821 FAD9  72          	LD (HL),D
 1822 FADA  2B          	DEC HL
 1823 FADB  73          	LD (HL),E
 1824 FADC  D1          	POP DE
 1825 FADD  10 F9       	DJNZ LXR0
 1826 FADF  C1          	POP BC
 1827 FAE0  0B          	DEC BC
 1828 FAE1  F9          	LD SP,HL
 1829 FAE2  21 0025     	LD HL,TLOCX
 1830 FAE5  39          	ADD HL,SP
 1831 FAE6  7E          	LD A,(HL)
 1832 FAE7  91          	SUB C
 1833 FAE8  23          	INC HL
 1834 FAE9  20 04       	JR NZ,LXR1
 1835 FAEB  7E          	LD A,(HL)
 1836 FAEC  90          	SUB B
 1837 FAED  28 0C       	JR Z,LXR3
 1838 FAEF              LXR1:
 1839 FAEF  23          	INC HL
 1840 FAF0  23          	INC HL
 1841 FAF1  7E          	LD  A,(HL)
 1842 FAF2  91          	SUB C
 1843 FAF3  20 05       	JR NZ,LXR2
 1844 FAF5  23          	INC HL
 1845 FAF6  7E          	LD  A,(HL)
 1846 FAF7  90          	SUB B
 1847 FAF8  28 01       	JR Z,LXR3
 1848 FAFA              LXR2:
 1849 FAFA  03          	INC BC
 1850 FAFB              LXR3:
 1851 FAFB  21 0020     	LD HL,LLOCX
 1852 FAFE  39          	ADD HL,SP
 1853 FAFF  73          	LD (HL),E
 1854 FB00  23          	INC HL
 1855 FB01  72          	LD (HL),D
 1856 FB02  23          	INC HL
Z80ASM SuperFast Relocating Macro Assembler     	    Z80ASM 1.32 Page  33
M72A-DD Z80

 1857 FB03  23          	INC HL
 1858 FB04  71          	LD (HL),C
 1859 FB05  23          	INC HL
 1860 FB06  70          	LD (HL),B
 1861 FB07  C5          	PUSH BC
 1862 FB08  0E 40       	LD C,'@'
 1863 FB0A  CD F059     	CALL CO
 1864 FB0D  E1          	POP HL
 1865 FB0E  CD FB4F     	CALL LADR
 1866 FB11  21 0025     	LD HL,TLOCX
 1867 FB14  39          	ADD HL,SP
 1868 FB15  01 0200     	LD BC,200H
 1869 FB18              LXR4:
 1870 FB18  5E          	LD E,(HL)
 1871 FB19  71          	LD (HL),C
 1872 FB1A  23          	INC HL
 1873 FB1B  56          	LD D,(HL)
 1874 FB1C  71          	LD (HL),C
 1875 FB1D  23          	INC HL
 1876 FB1E  7B          	LD A,E
 1877 FB1F  B2          	OR D
 1878 FB20  28 02       	JR Z,LXR5
 1879 FB22  7E          	LD A,(HL)
 1880 FB23  12          	LD (DE),A
 1881 FB24              LXR5:
 1882 FB24  23          	INC HL
 1883 FB25  10 F1       	DJNZ LXR4
 1884 FB27  08          	EX AF,AF'
 1885 FB28  D9          	EXX
 1886 FB29  E5          	PUSH HL
 1887 FB2A  D5          	PUSH DE
 1888 FB2B  C5          	PUSH BC
 1889 FB2C  F5          	PUSH AF
 1890 FB2D  DD E5       	PUSH IX
 1891 FB2F  FD E5       	PUSH IY
 1892 FB31  ED 57       	LD A,I
 1893 FB33  47          	LD B,A
 1894 FB34  ED 5F       	LD A,R
 1895 FB36  4F          	LD C,A
 1896 FB37  C5          	PUSH BC
 1897 FB38  C3 F84A     	JP mon_cold_start
 1898                   ;
 1899 FB3B              COPCK:
 1900 FB3B  0E 2D       	LD C,'-'
 1901 FB3D  CD F059     	CALL CO
 1902 FB40              PCHK:
 1903 FB40  CD FAA8     	CALL TI
 1904 FB43              QCHK:
 1905 FB43  FE 20       	CP ' '
 1906 FB45  C8          	RET Z
 1907 FB46  FE 2C       	CP ','
 1908 FB48  C8          	RET Z
 1909 FB49  FE 0D       	CP 0DH
 1910 FB4B  37          	SCF
 1911 FB4C  C8          	RET Z
 1912 FB4D  3F          	CCF
 1913 FB4E  C9          	RET
 1914                   ;
Z80ASM SuperFast Relocating Macro Assembler     	    Z80ASM 1.32 Page  34
M72A-DD Z80

 1915 FB4F              LADR:
 1916 FB4F  7C          	LD A,H
 1917 FB50  CD FB54     	CALL LBYTE
 1918 FB53  7D          	LD A,L
 1919 FB54              LBYTE:
 1920 FB54  F5          	PUSH AF
 1921 FB55  0F          	RRCA
 1922 FB56  0F          	RRCA
 1923 FB57  0F          	RRCA
 1924 FB58  0F          	RRCA
 1925 FB59  CD FB5D     	CALL LXR22
 1926 FB5C  F1          	POP AF
 1927 FB5D              LXR22:
 1928 FB5D  CD FB71     	CALL CONV
 1929 FB60  C3 F059     	JP CO
 1930 FB63              MARK:
 1931 FB63  01 08FF     	LD BC,8FFH
 1932 FB66  18 03       	JR LEO
 1933 FB68              LEAD:
 1934 FB68  01 4800     	LD BC,4800H
 1935 FB6B              LEO:
 1936 FB6B  CD F083     	CALL POO
 1937 FB6E  10 FB       	DJNZ  LEO
 1938 FB70  C9          	RET
 1939                   ;
 1940 FB71              CONV:
 1941 FB71  E6 0F       	AND 0FH
 1942 FB73  C6 90       	ADD A,90H
 1943 FB75  27          	DAA 
 1944 FB76  CE 40       	ADC A,40H
 1945 FB78  27          	DAA
 1946 FB79  4F          	LD C,A 	;HEX TO ASC
 1947 FB7A  C9          	RET
 1948                   ;
 1949                   ;-------------------- Monitor data structures -------------------------------
 1950                   ;
 1951                   ;Messages
 1952                   ;
 1953 FB7B  3F 20 00    no_match_message:	defm	"? ",0
 1954 FB7E  43 6F 6D 6D help_message:		defm	"Commands:",CR,LF,0
 1955 FB8A  64 75 6D 70 help_Message1:		defm "dump",cr,lf,"load"cr,lf,"run",cr,lf,"bload",cr,lf,0
 1956 FBA3  62 64 75 6D help_Message2:		defm 	"bdump",cr,lf,"iderd",cr,lf,"idewr",cr,lf,"boot",cr,lf,"?",0
 1957                   ;
 1958 FBC0  44 69 73 70 dump_message:		defm	"Displays a 256-byte block of memory",CR,LF,0
 1959 FBE6  45 6E 74 65 load_message:		defm	"Enter hex bytes starting at memory location",CR,LF,0
 1960 FC14  45 78 65 63 run_message:		defm	"Execute program at address entered",CR,LF,0
 1961 FC39  4C 6F 61 64 bload_message:		defm	"Loads binary file in memory at address entered",CR,LF,0
 1962 FC6A  0D 0A 52 65 bload_ready_message:	defm	CR,LF,"Ready to receive, start transfer",0
 1963 FC8D  44 75 6D 70 bdump_message:		defm	"Dumps binary data from memory to serial port",CR,LF,0
 1964 FCBC  0D 0A 52 65 bdump_ready_message:	defm	CR,LF,"Ready to send, hit any key to start",0
 1965 FCE2  52 65 61 64 iderd_message:		defm	"Reads one sector from disk to memory",CR,LF,0
 1966 FD09  57 72 69 74 idewr_message:		defm	"Writes one sector from memory to disk",CR,LF,0
 1967 FD31  4D 4F 4E 20 prompt_message:		defm	"MON ",0
 1968                   ;
 1969                   ;Strings for matching Parse Table
 1970                   ;
 1971 FD36  64 75 6D 70 dump_string:		defm	"dump",0
 1972 FD3B  6C 6F 61 64 load_string:		defm	"load",0
Z80ASM SuperFast Relocating Macro Assembler     	    Z80ASM 1.32 Page  35
M72A-DD Z80

 1973 FD40  72 75 6E 00 run_string:		defm	"run",0
 1974 FD44  62 6C 6F 61 bload_string:		defm	"bload",0
 1975 FD4A  62 64 75 6D bdump_string:		defm	"bdump",0
 1976 FD50  69 64 65 72 iderd_string:		defm	"iderd",0
 1977 FD56  69 64 65 77 idewr_string:		defm	"idewr",0
 1978 FD5C  62 6F 6F 74 boot_string:		defm	"boot",0
 1979 FD61  3F 00       question_string:	defm	"?",0
 1980 FD63  00 00       no_match_string:	defm	0,0
 1981                   ;
 1982                   ;Table for matching strings to jumps
 1983                   ;
 1984 FD65  FD36  F963  parse_table:	defw	dump_string,dump_jump,load_string,load_jump
 1985 FD6D  FD40  F993  			defw	run_string,run_jump
 1986 FD71  FD44  F9B8  			defw	bload_string,bload_jump,bdump_string,bdump_jump
 1987 FD79  FD50  FA11  			defw	iderd_string,iderd_jump,idewr_string,idewr_jump
 1988 FD81  FD5C  F8CB  			defw	boot_string,boot1
 1989 FD85  FD61  F9A3  			defw	question_string,help_jump
 1990 FD89  FD63  FA6D  			defw	no_match_string,no_match_jump	
 1991                   
 1992                   ;----------------------------------------------------------------------------------
 1993                   ;Strings used in subroutines
 1994                   ;
 1995 FD8D  45 6E 74 65 length_entry_string:	defm	"Enter length of file to load (decimal): ",0
 1996 FDB6  45 6E 74 65 dump_entry_string:	defm	"Enter no. of bytes to dump (decimal): ",0
 1997 FDDD  45 6E 74 65 LBA_entry_string:	defm	"Enter LBA (decimal, 0 to 65535): ",0
 1998 FDFF  08 1B 5B 4B erase_char_string:	defm	008h,01bh,"[K",000h	;ANSI sequence for backspace, erase to end of line
 1999 FE04  45 6E 74 65 address_entry_msg:	defm	"Enter 4-digit hex address (use upper-case A through F): ",0
 2000 FE3D  0D 0A 45 72 address_error_msg:	defm	CR,LF,"Error: invalid hex character, try again: ",0
 2001 FE69  45 6E 74 65 data_entry_msg:		defm	"Enter hex bytes, hit return when finished",CR,LF,0
 2002 FE95  45 72 72 6F data_error_msg:		defm	"Error: invalid hex byte",CR,LF,0
 2003 FEAF  0D 0A 45 72 decimal_error_msg:	defm	CR,LF,"Error: invalid decimal number, try again: ",0
 2004                   ;--------------------------------------------------------------------------------------
 2005                   ; IO LOOKUP TABLE
 2006 FEDC              LTBL:
 2007 FEDC  43          	DEFB 'C'
 2008 FEDD  54          	DEFB 'T'
 2009 FEDE  56          	DEFB 'V'
 2010 FEDF  42          	DEFB 'B'
 2011 FEE0  55          	DEFB 'U'
 2012                   
 2013 FEE1  52          	DEFB 'R'
 2014 FEE2  54          	DEFB 'T'
 2015 FEE3  50          	DEFB 'P'
 2016 FEE4  43          	DEFB 'C'
 2017 FEE5  55          	DEFB 'U'
 2018                   
 2019 FEE6  50          	DEFB 'P'
 2020 FEE7  54          	DEFB 'T'
 2021 FEE8  50          	DEFB 'P'
 2022 FEE9  43          	DEFB 'C'
 2023 FEEA  55          	DEFB 'U'
 2024                   
 2025 FEEB  4C          	DEFB 'L'
 2026 FEEC  54          	DEFB 'T'
 2027 FEED  56          	DEFB 'V'
 2028 FEEE  4C          	DEFB 'L'
 2029 FEEF  55          	DEFB 'U'
 2030                   
Z80ASM SuperFast Relocating Macro Assembler     	    Z80ASM 1.32 Page  36
M72A-DD Z80

 2031 FEF0              EXIT:
 2032 FEF0  C1          	POP BC
 2033 FEF1  79          	LD A,C
 2034 FEF2  ED 4F       	LD R,A
 2035 FEF4  78          	LD A,B
 2036 FEF5  ED 47       	LD I,A
 2037 FEF7  FD E1       	POP IY
 2038 FEF9  DD E1       	POP IX
 2039 FEFB  F1          	POP AF
 2040 FEFC  C1          	POP BC
 2041 FEFD  D1          	POP DE
 2042 FEFE  E1          	POP HL
 2043 FEFF  08          	EX AF,AF'
 2044 FF00  D9          	EXX
 2045 FF01  D1          	POP DE
 2046 FF02  C1          	POP BC
 2047 FF03  F1          	POP AF
 2048 FF04  E1          	POP HL
 2049 FF05  F9          	LD SP,HL
 2050 FF06  00          	NOP
 2051 FF07  21 0000     	LD HL,0
 2052 FF0A  C3 0000     	JP 0
 2053                   
 2054 FF0D  0000        	DEFW 0
 2055 FF0F  00          	DEFB 0
 2056 FF10  0000        	DEFW 0
 2057 FF12  00          	DEFB 0  	;TRAP AREA
 2058                   
 2059 FF13              ENDX:
 2060         0015      	ALOC EQU 15H
 2061         0013      	BLOC EQU 13H
 2062         0012      	CLOC EQU 12H
 2063         0011      	DLOC EQU 11H
 2064         0010      	ELOC EQU 10H
 2065         0014      	FLOC EQU 14H
 2066         0031      	HLOC EQU 31H
 2067         0030      	LLOC EQU 30H
 2068         0034      	PLOC EQU 34H
 2069         0017      	SLOC EQU 17H
 2070         0035      	TLOC EQU 35H
 2071         0025      	TLOCX EQU 25H
 2072         0020      	LLOCX EQU 20H
 2073                   
 2074         0009      	APLOC EQU 9
 2075         000B      	BPLOC EQU 0BH
 2076         000A      	CPLOC EQU 0AH
 2077         000D      	DPLOC EQU 0DH
 2078         000C      	EPLOC EQU 0CH
 2079         0008      	FPLOC EQU 8
 2080         000F      	HPLOC EQU 0FH
 2081         000E      	LPLOC EQU 0EH
 2082         0007      	XLOC EQU 7
 2083         0005      	YLOC EQU 5
 2084         0002      	RLOC EQU 2
 2085         0003      	ILOC EQU 3
 2086                   
 2087                   
 2088                   		; TABELLE
Z80ASM SuperFast Relocating Macro Assembler     	    Z80ASM 1.32 Page  37
M72A-DD Z80

 2089 FF13              ACTBL:
 2090 FF13  41 15       	DEFB 'A',ALOC OR 0
 2091 FF15  42 13       	DEFB 'B',BLOC OR 0
 2092 FF17  43 12       	DEFB 'C',CLOC OR 0
 2093 FF19  44 11       	DEFB 'D',DLOC OR 0
 2094 FF1B  45 10       	DEFB 'E',ELOC OR 0
 2095 FF1D  46 14       	DEFB 'F',FLOC OR 0
 2096 FF1F  48 31       	DEFB 'H',HLOC OR 0
 2097 FF21  4C 30       	DEFB 'L',LLOC OR 0
 2098 FF23  4D F1       	DEFB 'M',HLOC OR 0C0H
 2099 FF25  50 B4       	DEFB 'P',PLOC OR 080H
 2100 FF27  53 97       	DEFB 'S',SLOC OR 080H
 2101 FF29  49 03       	DEFB 'I',ILOC OR 0
 2102                   
 2103 FF2B  C1          	DEFB 0C1H
 2104                   
 2105 FF2C              PRMTB:
 2106 FF2C  41 09       	DEFB 'A',APLOC OR 0
 2107 FF2E  42 0B       	DEFB 'B',BPLOC OR 0
 2108 FF30  43 0A       	DEFB 'C',CPLOC OR 0
 2109 FF32  44 0D       	DEFB 'D',DPLOC OR 0
 2110 FF34  45 0C       	DEFB 'E',EPLOC OR 0
 2111 FF36  46 08       	DEFB 'F',FPLOC OR 0
 2112 FF38  48 0F       	DEFB 'H',HPLOC OR 0
 2113 FF3A  4C 0E       	DEFB 'L',LPLOC OR 0
 2114 FF3C  4D CF       	DEFB 'M',HPLOC OR 0C0H
 2115 FF3E  58 87       	DEFB 'X',XLOC  OR 080H
 2116 FF40  59 85       	DEFB 'Y',YLOC  OR 080H
 2117 FF42  52 02       	DEFB 'R',RLOC  OR 0
 2118 FF44  C1          	DEFB 0C1H
 2119                   ;
 2120 FF45  00          LASTMON:	DEFB 0 	;LAST STORAGE
 2121                   ;
 2122                   	.DEPHASE
 2123                   	END
 0 Error(s) Detected.
 3939 Absolute Bytes. 309 Symbols Detected.
',SLOC 